
EFG.elf:     file format elf32-littlearm

Sections:
Idx Name          Size      VMA       LMA       File off  Algn
  0 .isr_vector   000000c0  08000000  08000000  00010000  2**0
                  CONTENTS, ALLOC, LOAD, READONLY, DATA
  1 .text         0000333c  080000c0  080000c0  000100c0  2**2
                  CONTENTS, ALLOC, LOAD, READONLY, CODE
  2 .rodata       0000010c  080033fc  080033fc  000133fc  2**2
                  CONTENTS, ALLOC, LOAD, READONLY, DATA
  3 .ARM.extab    00000000  08003508  08003508  0002005c  2**0
                  CONTENTS
  4 .ARM          00000000  08003508  08003508  0002005c  2**0
                  CONTENTS
  5 .preinit_array 00000000  08003508  08003508  0002005c  2**0
                  CONTENTS, ALLOC, LOAD, DATA
  6 .init_array   00000004  08003508  08003508  00013508  2**2
                  CONTENTS, ALLOC, LOAD, DATA
  7 .fini_array   00000004  0800350c  0800350c  0001350c  2**2
                  CONTENTS, ALLOC, LOAD, DATA
  8 .data         0000005c  20000000  08003510  00020000  2**2
                  CONTENTS, ALLOC, LOAD, DATA
  9 .bss          0000033c  2000005c  0800356c  0002005c  2**2
                  ALLOC
 10 ._user_heap_stack 00000600  20000398  0800356c  00020398  2**0
                  ALLOC
 11 .ARM.attributes 00000028  00000000  00000000  0002005c  2**0
                  CONTENTS, READONLY
 12 .comment      00000043  00000000  00000000  00020084  2**0
                  CONTENTS, READONLY
 13 .debug_frame  0000057c  00000000  00000000  000200c8  2**2
                  CONTENTS, READONLY, DEBUGGING, OCTETS

Disassembly of section .text:

080000c0 <__do_global_dtors_aux>:
 80000c0:	b510      	push	{r4, lr}
 80000c2:	4c06      	ldr	r4, [pc, #24]	; (80000dc <__do_global_dtors_aux+0x1c>)
 80000c4:	7823      	ldrb	r3, [r4, #0]
 80000c6:	2b00      	cmp	r3, #0
 80000c8:	d107      	bne.n	80000da <__do_global_dtors_aux+0x1a>
 80000ca:	4b05      	ldr	r3, [pc, #20]	; (80000e0 <__do_global_dtors_aux+0x20>)
 80000cc:	2b00      	cmp	r3, #0
 80000ce:	d002      	beq.n	80000d6 <__do_global_dtors_aux+0x16>
 80000d0:	4804      	ldr	r0, [pc, #16]	; (80000e4 <__do_global_dtors_aux+0x24>)
 80000d2:	e000      	b.n	80000d6 <__do_global_dtors_aux+0x16>
 80000d4:	bf00      	nop
 80000d6:	2301      	movs	r3, #1
 80000d8:	7023      	strb	r3, [r4, #0]
 80000da:	bd10      	pop	{r4, pc}
 80000dc:	2000005c 	.word	0x2000005c
 80000e0:	00000000 	.word	0x00000000
 80000e4:	080033e4 	.word	0x080033e4

080000e8 <frame_dummy>:
 80000e8:	4b04      	ldr	r3, [pc, #16]	; (80000fc <frame_dummy+0x14>)
 80000ea:	b510      	push	{r4, lr}
 80000ec:	2b00      	cmp	r3, #0
 80000ee:	d003      	beq.n	80000f8 <frame_dummy+0x10>
 80000f0:	4903      	ldr	r1, [pc, #12]	; (8000100 <frame_dummy+0x18>)
 80000f2:	4804      	ldr	r0, [pc, #16]	; (8000104 <frame_dummy+0x1c>)
 80000f4:	e000      	b.n	80000f8 <frame_dummy+0x10>
 80000f6:	bf00      	nop
 80000f8:	bd10      	pop	{r4, pc}
 80000fa:	46c0      	nop			; (mov r8, r8)
 80000fc:	00000000 	.word	0x00000000
 8000100:	20000060 	.word	0x20000060
 8000104:	080033e4 	.word	0x080033e4

08000108 <strlen>:
 8000108:	2300      	movs	r3, #0
 800010a:	5cc2      	ldrb	r2, [r0, r3]
 800010c:	3301      	adds	r3, #1
 800010e:	2a00      	cmp	r2, #0
 8000110:	d1fb      	bne.n	800010a <strlen+0x2>
 8000112:	1e58      	subs	r0, r3, #1
 8000114:	4770      	bx	lr
	...

08000118 <__gnu_thumb1_case_sqi>:
 8000118:	b402      	push	{r1}
 800011a:	4671      	mov	r1, lr
 800011c:	0849      	lsrs	r1, r1, #1
 800011e:	0049      	lsls	r1, r1, #1
 8000120:	5609      	ldrsb	r1, [r1, r0]
 8000122:	0049      	lsls	r1, r1, #1
 8000124:	448e      	add	lr, r1
 8000126:	bc02      	pop	{r1}
 8000128:	4770      	bx	lr
 800012a:	46c0      	nop			; (mov r8, r8)

0800012c <__gnu_thumb1_case_uqi>:
 800012c:	b402      	push	{r1}
 800012e:	4671      	mov	r1, lr
 8000130:	0849      	lsrs	r1, r1, #1
 8000132:	0049      	lsls	r1, r1, #1
 8000134:	5c09      	ldrb	r1, [r1, r0]
 8000136:	0049      	lsls	r1, r1, #1
 8000138:	448e      	add	lr, r1
 800013a:	bc02      	pop	{r1}
 800013c:	4770      	bx	lr
 800013e:	46c0      	nop			; (mov r8, r8)

08000140 <__gnu_thumb1_case_shi>:
 8000140:	b403      	push	{r0, r1}
 8000142:	4671      	mov	r1, lr
 8000144:	0849      	lsrs	r1, r1, #1
 8000146:	0040      	lsls	r0, r0, #1
 8000148:	0049      	lsls	r1, r1, #1
 800014a:	5e09      	ldrsh	r1, [r1, r0]
 800014c:	0049      	lsls	r1, r1, #1
 800014e:	448e      	add	lr, r1
 8000150:	bc03      	pop	{r0, r1}
 8000152:	4770      	bx	lr

08000154 <__udivsi3>:
 8000154:	2200      	movs	r2, #0
 8000156:	0843      	lsrs	r3, r0, #1
 8000158:	428b      	cmp	r3, r1
 800015a:	d374      	bcc.n	8000246 <__udivsi3+0xf2>
 800015c:	0903      	lsrs	r3, r0, #4
 800015e:	428b      	cmp	r3, r1
 8000160:	d35f      	bcc.n	8000222 <__udivsi3+0xce>
 8000162:	0a03      	lsrs	r3, r0, #8
 8000164:	428b      	cmp	r3, r1
 8000166:	d344      	bcc.n	80001f2 <__udivsi3+0x9e>
 8000168:	0b03      	lsrs	r3, r0, #12
 800016a:	428b      	cmp	r3, r1
 800016c:	d328      	bcc.n	80001c0 <__udivsi3+0x6c>
 800016e:	0c03      	lsrs	r3, r0, #16
 8000170:	428b      	cmp	r3, r1
 8000172:	d30d      	bcc.n	8000190 <__udivsi3+0x3c>
 8000174:	22ff      	movs	r2, #255	; 0xff
 8000176:	0209      	lsls	r1, r1, #8
 8000178:	ba12      	rev	r2, r2
 800017a:	0c03      	lsrs	r3, r0, #16
 800017c:	428b      	cmp	r3, r1
 800017e:	d302      	bcc.n	8000186 <__udivsi3+0x32>
 8000180:	1212      	asrs	r2, r2, #8
 8000182:	0209      	lsls	r1, r1, #8
 8000184:	d065      	beq.n	8000252 <__udivsi3+0xfe>
 8000186:	0b03      	lsrs	r3, r0, #12
 8000188:	428b      	cmp	r3, r1
 800018a:	d319      	bcc.n	80001c0 <__udivsi3+0x6c>
 800018c:	e000      	b.n	8000190 <__udivsi3+0x3c>
 800018e:	0a09      	lsrs	r1, r1, #8
 8000190:	0bc3      	lsrs	r3, r0, #15
 8000192:	428b      	cmp	r3, r1
 8000194:	d301      	bcc.n	800019a <__udivsi3+0x46>
 8000196:	03cb      	lsls	r3, r1, #15
 8000198:	1ac0      	subs	r0, r0, r3
 800019a:	4152      	adcs	r2, r2
 800019c:	0b83      	lsrs	r3, r0, #14
 800019e:	428b      	cmp	r3, r1
 80001a0:	d301      	bcc.n	80001a6 <__udivsi3+0x52>
 80001a2:	038b      	lsls	r3, r1, #14
 80001a4:	1ac0      	subs	r0, r0, r3
 80001a6:	4152      	adcs	r2, r2
 80001a8:	0b43      	lsrs	r3, r0, #13
 80001aa:	428b      	cmp	r3, r1
 80001ac:	d301      	bcc.n	80001b2 <__udivsi3+0x5e>
 80001ae:	034b      	lsls	r3, r1, #13
 80001b0:	1ac0      	subs	r0, r0, r3
 80001b2:	4152      	adcs	r2, r2
 80001b4:	0b03      	lsrs	r3, r0, #12
 80001b6:	428b      	cmp	r3, r1
 80001b8:	d301      	bcc.n	80001be <__udivsi3+0x6a>
 80001ba:	030b      	lsls	r3, r1, #12
 80001bc:	1ac0      	subs	r0, r0, r3
 80001be:	4152      	adcs	r2, r2
 80001c0:	0ac3      	lsrs	r3, r0, #11
 80001c2:	428b      	cmp	r3, r1
 80001c4:	d301      	bcc.n	80001ca <__udivsi3+0x76>
 80001c6:	02cb      	lsls	r3, r1, #11
 80001c8:	1ac0      	subs	r0, r0, r3
 80001ca:	4152      	adcs	r2, r2
 80001cc:	0a83      	lsrs	r3, r0, #10
 80001ce:	428b      	cmp	r3, r1
 80001d0:	d301      	bcc.n	80001d6 <__udivsi3+0x82>
 80001d2:	028b      	lsls	r3, r1, #10
 80001d4:	1ac0      	subs	r0, r0, r3
 80001d6:	4152      	adcs	r2, r2
 80001d8:	0a43      	lsrs	r3, r0, #9
 80001da:	428b      	cmp	r3, r1
 80001dc:	d301      	bcc.n	80001e2 <__udivsi3+0x8e>
 80001de:	024b      	lsls	r3, r1, #9
 80001e0:	1ac0      	subs	r0, r0, r3
 80001e2:	4152      	adcs	r2, r2
 80001e4:	0a03      	lsrs	r3, r0, #8
 80001e6:	428b      	cmp	r3, r1
 80001e8:	d301      	bcc.n	80001ee <__udivsi3+0x9a>
 80001ea:	020b      	lsls	r3, r1, #8
 80001ec:	1ac0      	subs	r0, r0, r3
 80001ee:	4152      	adcs	r2, r2
 80001f0:	d2cd      	bcs.n	800018e <__udivsi3+0x3a>
 80001f2:	09c3      	lsrs	r3, r0, #7
 80001f4:	428b      	cmp	r3, r1
 80001f6:	d301      	bcc.n	80001fc <__udivsi3+0xa8>
 80001f8:	01cb      	lsls	r3, r1, #7
 80001fa:	1ac0      	subs	r0, r0, r3
 80001fc:	4152      	adcs	r2, r2
 80001fe:	0983      	lsrs	r3, r0, #6
 8000200:	428b      	cmp	r3, r1
 8000202:	d301      	bcc.n	8000208 <__udivsi3+0xb4>
 8000204:	018b      	lsls	r3, r1, #6
 8000206:	1ac0      	subs	r0, r0, r3
 8000208:	4152      	adcs	r2, r2
 800020a:	0943      	lsrs	r3, r0, #5
 800020c:	428b      	cmp	r3, r1
 800020e:	d301      	bcc.n	8000214 <__udivsi3+0xc0>
 8000210:	014b      	lsls	r3, r1, #5
 8000212:	1ac0      	subs	r0, r0, r3
 8000214:	4152      	adcs	r2, r2
 8000216:	0903      	lsrs	r3, r0, #4
 8000218:	428b      	cmp	r3, r1
 800021a:	d301      	bcc.n	8000220 <__udivsi3+0xcc>
 800021c:	010b      	lsls	r3, r1, #4
 800021e:	1ac0      	subs	r0, r0, r3
 8000220:	4152      	adcs	r2, r2
 8000222:	08c3      	lsrs	r3, r0, #3
 8000224:	428b      	cmp	r3, r1
 8000226:	d301      	bcc.n	800022c <__udivsi3+0xd8>
 8000228:	00cb      	lsls	r3, r1, #3
 800022a:	1ac0      	subs	r0, r0, r3
 800022c:	4152      	adcs	r2, r2
 800022e:	0883      	lsrs	r3, r0, #2
 8000230:	428b      	cmp	r3, r1
 8000232:	d301      	bcc.n	8000238 <__udivsi3+0xe4>
 8000234:	008b      	lsls	r3, r1, #2
 8000236:	1ac0      	subs	r0, r0, r3
 8000238:	4152      	adcs	r2, r2
 800023a:	0843      	lsrs	r3, r0, #1
 800023c:	428b      	cmp	r3, r1
 800023e:	d301      	bcc.n	8000244 <__udivsi3+0xf0>
 8000240:	004b      	lsls	r3, r1, #1
 8000242:	1ac0      	subs	r0, r0, r3
 8000244:	4152      	adcs	r2, r2
 8000246:	1a41      	subs	r1, r0, r1
 8000248:	d200      	bcs.n	800024c <__udivsi3+0xf8>
 800024a:	4601      	mov	r1, r0
 800024c:	4152      	adcs	r2, r2
 800024e:	4610      	mov	r0, r2
 8000250:	4770      	bx	lr
 8000252:	e7ff      	b.n	8000254 <__udivsi3+0x100>
 8000254:	b501      	push	{r0, lr}
 8000256:	2000      	movs	r0, #0
 8000258:	f000 f806 	bl	8000268 <__aeabi_idiv0>
 800025c:	bd02      	pop	{r1, pc}
 800025e:	46c0      	nop			; (mov r8, r8)

08000260 <__aeabi_uidivmod>:
 8000260:	2900      	cmp	r1, #0
 8000262:	d0f7      	beq.n	8000254 <__udivsi3+0x100>
 8000264:	e776      	b.n	8000154 <__udivsi3>
 8000266:	4770      	bx	lr

08000268 <__aeabi_idiv0>:
 8000268:	4770      	bx	lr
 800026a:	46c0      	nop			; (mov r8, r8)

0800026c <HAL_GPIO_EXTI_Falling_Callback>:
 800026c:	b510      	push	{r4, lr}
 800026e:	0004      	movs	r4, r0
 8000270:	f000 fd7e 	bl	8000d70 <HAL_ResumeTick>
 8000274:	f000 fd5c 	bl	8000d30 <HAL_GetTick>
 8000278:	4b0d      	ldr	r3, [pc, #52]	; (80002b0 <HAL_GPIO_EXTI_Falling_Callback+0x44>)
 800027a:	6018      	str	r0, [r3, #0]
 800027c:	2380      	movs	r3, #128	; 0x80
 800027e:	021b      	lsls	r3, r3, #8
 8000280:	429c      	cmp	r4, r3
 8000282:	d111      	bne.n	80002a8 <HAL_GPIO_EXTI_Falling_Callback+0x3c>
 8000284:	4c0b      	ldr	r4, [pc, #44]	; (80002b4 <HAL_GPIO_EXTI_Falling_Callback+0x48>)
 8000286:	7823      	ldrb	r3, [r4, #0]
 8000288:	3301      	adds	r3, #1
 800028a:	b2db      	uxtb	r3, r3
 800028c:	7023      	strb	r3, [r4, #0]
 800028e:	f000 fd4f 	bl	8000d30 <HAL_GetTick>
 8000292:	4b09      	ldr	r3, [pc, #36]	; (80002b8 <HAL_GPIO_EXTI_Falling_Callback+0x4c>)
 8000294:	6018      	str	r0, [r3, #0]
 8000296:	7823      	ldrb	r3, [r4, #0]
 8000298:	2b01      	cmp	r3, #1
 800029a:	d901      	bls.n	80002a0 <HAL_GPIO_EXTI_Falling_Callback+0x34>
 800029c:	2300      	movs	r3, #0
 800029e:	7023      	strb	r3, [r4, #0]
 80002a0:	4b06      	ldr	r3, [pc, #24]	; (80002bc <HAL_GPIO_EXTI_Falling_Callback+0x50>)
 80002a2:	2201      	movs	r2, #1
 80002a4:	701a      	strb	r2, [r3, #0]
 80002a6:	bd10      	pop	{r4, pc}
 80002a8:	2c40      	cmp	r4, #64	; 0x40
 80002aa:	d1fc      	bne.n	80002a6 <HAL_GPIO_EXTI_Falling_Callback+0x3a>
 80002ac:	4b04      	ldr	r3, [pc, #16]	; (80002c0 <HAL_GPIO_EXTI_Falling_Callback+0x54>)
 80002ae:	e7f8      	b.n	80002a2 <HAL_GPIO_EXTI_Falling_Callback+0x36>
 80002b0:	200000b0 	.word	0x200000b0
 80002b4:	20000080 	.word	0x20000080
 80002b8:	20000084 	.word	0x20000084
 80002bc:	200000b5 	.word	0x200000b5
 80002c0:	20000081 	.word	0x20000081

080002c4 <HAL_TIM_PeriodElapsedCallback>:
 80002c4:	4b04      	ldr	r3, [pc, #16]	; (80002d8 <HAL_TIM_PeriodElapsedCallback+0x14>)
 80002c6:	b510      	push	{r4, lr}
 80002c8:	4283      	cmp	r3, r0
 80002ca:	d104      	bne.n	80002d6 <HAL_TIM_PeriodElapsedCallback+0x12>
 80002cc:	f000 fd50 	bl	8000d70 <HAL_ResumeTick>
 80002d0:	2201      	movs	r2, #1
 80002d2:	4b02      	ldr	r3, [pc, #8]	; (80002dc <HAL_TIM_PeriodElapsedCallback+0x18>)
 80002d4:	701a      	strb	r2, [r3, #0]
 80002d6:	bd10      	pop	{r4, pc}
 80002d8:	2000011c 	.word	0x2000011c
 80002dc:	200000b5 	.word	0x200000b5

080002e0 <openValve>:
 80002e0:	2180      	movs	r1, #128	; 0x80
 80002e2:	20a0      	movs	r0, #160	; 0xa0
 80002e4:	b570      	push	{r4, r5, r6, lr}
 80002e6:	2201      	movs	r2, #1
 80002e8:	0089      	lsls	r1, r1, #2
 80002ea:	05c0      	lsls	r0, r0, #23
 80002ec:	f001 f9e8 	bl	80016c0 <HAL_GPIO_WritePin>
 80002f0:	4d13      	ldr	r5, [pc, #76]	; (8000340 <openValve+0x60>)
 80002f2:	2100      	movs	r1, #0
 80002f4:	0028      	movs	r0, r5
 80002f6:	f002 f89d 	bl	8002434 <HAL_TIM_PWM_Start>
 80002fa:	2032      	movs	r0, #50	; 0x32
 80002fc:	f000 fd1e 	bl	8000d3c <HAL_Delay>
 8000300:	4c10      	ldr	r4, [pc, #64]	; (8000344 <openValve+0x64>)
 8000302:	682b      	ldr	r3, [r5, #0]
 8000304:	201e      	movs	r0, #30
 8000306:	635c      	str	r4, [r3, #52]	; 0x34
 8000308:	f000 fd18 	bl	8000d3c <HAL_Delay>
 800030c:	4b0e      	ldr	r3, [pc, #56]	; (8000348 <openValve+0x68>)
 800030e:	3c32      	subs	r4, #50	; 0x32
 8000310:	429c      	cmp	r4, r3
 8000312:	d1f6      	bne.n	8000302 <openValve+0x22>
 8000314:	2032      	movs	r0, #50	; 0x32
 8000316:	f000 fd11 	bl	8000d3c <HAL_Delay>
 800031a:	2100      	movs	r1, #0
 800031c:	0028      	movs	r0, r5
 800031e:	f002 f8db 	bl	80024d8 <HAL_TIM_PWM_Stop>
 8000322:	2032      	movs	r0, #50	; 0x32
 8000324:	f000 fd0a 	bl	8000d3c <HAL_Delay>
 8000328:	2180      	movs	r1, #128	; 0x80
 800032a:	20a0      	movs	r0, #160	; 0xa0
 800032c:	2200      	movs	r2, #0
 800032e:	0089      	lsls	r1, r1, #2
 8000330:	05c0      	lsls	r0, r0, #23
 8000332:	f001 f9c5 	bl	80016c0 <HAL_GPIO_WritePin>
 8000336:	2201      	movs	r2, #1
 8000338:	4b04      	ldr	r3, [pc, #16]	; (800034c <openValve+0x6c>)
 800033a:	701a      	strb	r2, [r3, #0]
 800033c:	bd70      	pop	{r4, r5, r6, pc}
 800033e:	46c0      	nop			; (mov r8, r8)
 8000340:	20000168 	.word	0x20000168
 8000344:	00000834 	.word	0x00000834
 8000348:	00000352 	.word	0x00000352
 800034c:	200000b4 	.word	0x200000b4

08000350 <closeValve>:
 8000350:	2180      	movs	r1, #128	; 0x80
 8000352:	20a0      	movs	r0, #160	; 0xa0
 8000354:	b570      	push	{r4, r5, r6, lr}
 8000356:	2201      	movs	r2, #1
 8000358:	0089      	lsls	r1, r1, #2
 800035a:	05c0      	lsls	r0, r0, #23
 800035c:	f001 f9b0 	bl	80016c0 <HAL_GPIO_WritePin>
 8000360:	4d13      	ldr	r5, [pc, #76]	; (80003b0 <closeValve+0x60>)
 8000362:	2100      	movs	r1, #0
 8000364:	0028      	movs	r0, r5
 8000366:	f002 f865 	bl	8002434 <HAL_TIM_PWM_Start>
 800036a:	24e1      	movs	r4, #225	; 0xe1
 800036c:	2032      	movs	r0, #50	; 0x32
 800036e:	f000 fce5 	bl	8000d3c <HAL_Delay>
 8000372:	00a4      	lsls	r4, r4, #2
 8000374:	682b      	ldr	r3, [r5, #0]
 8000376:	201e      	movs	r0, #30
 8000378:	635c      	str	r4, [r3, #52]	; 0x34
 800037a:	f000 fcdf 	bl	8000d3c <HAL_Delay>
 800037e:	4b0d      	ldr	r3, [pc, #52]	; (80003b4 <closeValve+0x64>)
 8000380:	3432      	adds	r4, #50	; 0x32
 8000382:	429c      	cmp	r4, r3
 8000384:	d1f6      	bne.n	8000374 <closeValve+0x24>
 8000386:	2032      	movs	r0, #50	; 0x32
 8000388:	f000 fcd8 	bl	8000d3c <HAL_Delay>
 800038c:	2100      	movs	r1, #0
 800038e:	0028      	movs	r0, r5
 8000390:	f002 f8a2 	bl	80024d8 <HAL_TIM_PWM_Stop>
 8000394:	2032      	movs	r0, #50	; 0x32
 8000396:	f000 fcd1 	bl	8000d3c <HAL_Delay>
 800039a:	2180      	movs	r1, #128	; 0x80
 800039c:	20a0      	movs	r0, #160	; 0xa0
 800039e:	2200      	movs	r2, #0
 80003a0:	0089      	lsls	r1, r1, #2
 80003a2:	05c0      	lsls	r0, r0, #23
 80003a4:	f001 f98c 	bl	80016c0 <HAL_GPIO_WritePin>
 80003a8:	2200      	movs	r2, #0
 80003aa:	4b03      	ldr	r3, [pc, #12]	; (80003b8 <closeValve+0x68>)
 80003ac:	701a      	strb	r2, [r3, #0]
 80003ae:	bd70      	pop	{r4, r5, r6, pc}
 80003b0:	20000168 	.word	0x20000168
 80003b4:	00000866 	.word	0x00000866
 80003b8:	200000b4 	.word	0x200000b4

080003bc <measureBattery>:
 80003bc:	b5f7      	push	{r0, r1, r2, r4, r5, r6, r7, lr}
 80003be:	2780      	movs	r7, #128	; 0x80
 80003c0:	4e16      	ldr	r6, [pc, #88]	; (800041c <measureBattery+0x60>)
 80003c2:	023f      	lsls	r7, r7, #8
 80003c4:	2201      	movs	r2, #1
 80003c6:	0039      	movs	r1, r7
 80003c8:	0030      	movs	r0, r6
 80003ca:	f001 f979 	bl	80016c0 <HAL_GPIO_WritePin>
 80003ce:	4c14      	ldr	r4, [pc, #80]	; (8000420 <measureBattery+0x64>)
 80003d0:	0020      	movs	r0, r4
 80003d2:	f000 ffe3 	bl	800139c <HAL_ADC_Start>
 80003d6:	21fa      	movs	r1, #250	; 0xfa
 80003d8:	0020      	movs	r0, r4
 80003da:	0089      	lsls	r1, r1, #2
 80003dc:	f000 fde4 	bl	8000fa8 <HAL_ADC_PollForConversion>
 80003e0:	0020      	movs	r0, r4
 80003e2:	f000 fe3f 	bl	8001064 <HAL_ADC_GetValue>
 80003e6:	466b      	mov	r3, sp
 80003e8:	b280      	uxth	r0, r0
 80003ea:	80d8      	strh	r0, [r3, #6]
 80003ec:	2005      	movs	r0, #5
 80003ee:	1d9d      	adds	r5, r3, #6
 80003f0:	f000 fca4 	bl	8000d3c <HAL_Delay>
 80003f4:	0020      	movs	r0, r4
 80003f6:	f001 f837 	bl	8001468 <HAL_ADC_Stop>
 80003fa:	0039      	movs	r1, r7
 80003fc:	0030      	movs	r0, r6
 80003fe:	2200      	movs	r2, #0
 8000400:	f001 f95e 	bl	80016c0 <HAL_GPIO_WritePin>
 8000404:	2300      	movs	r3, #0
 8000406:	8829      	ldrh	r1, [r5, #0]
 8000408:	4806      	ldr	r0, [pc, #24]	; (8000424 <measureBattery+0x68>)
 800040a:	b289      	uxth	r1, r1
 800040c:	4288      	cmp	r0, r1
 800040e:	415b      	adcs	r3, r3
 8000410:	4a05      	ldr	r2, [pc, #20]	; (8000428 <measureBattery+0x6c>)
 8000412:	8828      	ldrh	r0, [r5, #0]
 8000414:	7013      	strb	r3, [r2, #0]
 8000416:	b280      	uxth	r0, r0
 8000418:	bdfe      	pop	{r1, r2, r3, r4, r5, r6, r7, pc}
 800041a:	46c0      	nop			; (mov r8, r8)
 800041c:	50000400 	.word	0x50000400
 8000420:	200000b8 	.word	0x200000b8
 8000424:	00000b85 	.word	0x00000b85
 8000428:	20000078 	.word	0x20000078

0800042c <statusled>:
 800042c:	b570      	push	{r4, r5, r6, lr}
 800042e:	2580      	movs	r5, #128	; 0x80
 8000430:	4c0c      	ldr	r4, [pc, #48]	; (8000464 <statusled+0x38>)
 8000432:	006d      	lsls	r5, r5, #1
 8000434:	0020      	movs	r0, r4
 8000436:	2201      	movs	r2, #1
 8000438:	2180      	movs	r1, #128	; 0x80
 800043a:	f001 f941 	bl	80016c0 <HAL_GPIO_WritePin>
 800043e:	0029      	movs	r1, r5
 8000440:	2201      	movs	r2, #1
 8000442:	0020      	movs	r0, r4
 8000444:	f001 f93c 	bl	80016c0 <HAL_GPIO_WritePin>
 8000448:	2064      	movs	r0, #100	; 0x64
 800044a:	f000 fc77 	bl	8000d3c <HAL_Delay>
 800044e:	0020      	movs	r0, r4
 8000450:	2200      	movs	r2, #0
 8000452:	2180      	movs	r1, #128	; 0x80
 8000454:	f001 f934 	bl	80016c0 <HAL_GPIO_WritePin>
 8000458:	0029      	movs	r1, r5
 800045a:	2200      	movs	r2, #0
 800045c:	0020      	movs	r0, r4
 800045e:	f001 f92f 	bl	80016c0 <HAL_GPIO_WritePin>
 8000462:	bd70      	pop	{r4, r5, r6, pc}
 8000464:	50000400 	.word	0x50000400

08000468 <batteryled>:
 8000468:	b570      	push	{r4, r5, r6, lr}
 800046a:	2580      	movs	r5, #128	; 0x80
 800046c:	4c0c      	ldr	r4, [pc, #48]	; (80004a0 <batteryled+0x38>)
 800046e:	00ad      	lsls	r5, r5, #2
 8000470:	0020      	movs	r0, r4
 8000472:	2201      	movs	r2, #1
 8000474:	2180      	movs	r1, #128	; 0x80
 8000476:	f001 f923 	bl	80016c0 <HAL_GPIO_WritePin>
 800047a:	0029      	movs	r1, r5
 800047c:	2201      	movs	r2, #1
 800047e:	0020      	movs	r0, r4
 8000480:	f001 f91e 	bl	80016c0 <HAL_GPIO_WritePin>
 8000484:	20c8      	movs	r0, #200	; 0xc8
 8000486:	f000 fc59 	bl	8000d3c <HAL_Delay>
 800048a:	0029      	movs	r1, r5
 800048c:	0020      	movs	r0, r4
 800048e:	2200      	movs	r2, #0
 8000490:	f001 f916 	bl	80016c0 <HAL_GPIO_WritePin>
 8000494:	2200      	movs	r2, #0
 8000496:	2180      	movs	r1, #128	; 0x80
 8000498:	0020      	movs	r0, r4
 800049a:	f001 f911 	bl	80016c0 <HAL_GPIO_WritePin>
 800049e:	bd70      	pop	{r4, r5, r6, pc}
 80004a0:	50000400 	.word	0x50000400

080004a4 <alert>:
 80004a4:	b570      	push	{r4, r5, r6, lr}
 80004a6:	2680      	movs	r6, #128	; 0x80
 80004a8:	2580      	movs	r5, #128	; 0x80
 80004aa:	4c0e      	ldr	r4, [pc, #56]	; (80004e4 <alert+0x40>)
 80004ac:	0076      	lsls	r6, r6, #1
 80004ae:	0031      	movs	r1, r6
 80004b0:	00ad      	lsls	r5, r5, #2
 80004b2:	0020      	movs	r0, r4
 80004b4:	2201      	movs	r2, #1
 80004b6:	f001 f903 	bl	80016c0 <HAL_GPIO_WritePin>
 80004ba:	0029      	movs	r1, r5
 80004bc:	2201      	movs	r2, #1
 80004be:	0020      	movs	r0, r4
 80004c0:	f001 f8fe 	bl	80016c0 <HAL_GPIO_WritePin>
 80004c4:	20fa      	movs	r0, #250	; 0xfa
 80004c6:	0080      	lsls	r0, r0, #2
 80004c8:	f000 fc38 	bl	8000d3c <HAL_Delay>
 80004cc:	0031      	movs	r1, r6
 80004ce:	0020      	movs	r0, r4
 80004d0:	2200      	movs	r2, #0
 80004d2:	f001 f8f5 	bl	80016c0 <HAL_GPIO_WritePin>
 80004d6:	0029      	movs	r1, r5
 80004d8:	2200      	movs	r2, #0
 80004da:	0020      	movs	r0, r4
 80004dc:	f001 f8f0 	bl	80016c0 <HAL_GPIO_WritePin>
 80004e0:	bd70      	pop	{r4, r5, r6, pc}
 80004e2:	46c0      	nop			; (mov r8, r8)
 80004e4:	50000400 	.word	0x50000400

080004e8 <console>:
 80004e8:	b510      	push	{r4, lr}
 80004ea:	0004      	movs	r4, r0
 80004ec:	f7ff fe0c 	bl	8000108 <strlen>
 80004f0:	2301      	movs	r3, #1
 80004f2:	0021      	movs	r1, r4
 80004f4:	b282      	uxth	r2, r0
 80004f6:	425b      	negs	r3, r3
 80004f8:	4807      	ldr	r0, [pc, #28]	; (8000518 <console+0x30>)
 80004fa:	f002 f9c2 	bl	8002882 <HAL_UART_Transmit>
 80004fe:	200a      	movs	r0, #10
 8000500:	f000 fc1c 	bl	8000d3c <HAL_Delay>
 8000504:	0020      	movs	r0, r4
 8000506:	f7ff fdff 	bl	8000108 <strlen>
 800050a:	2100      	movs	r1, #0
 800050c:	0002      	movs	r2, r0
 800050e:	0020      	movs	r0, r4
 8000510:	f002 fada 	bl	8002ac8 <memset>
 8000514:	bd10      	pop	{r4, pc}
 8000516:	46c0      	nop			; (mov r8, r8)
 8000518:	200001b4 	.word	0x200001b4

0800051c <monitorBattery>:
 800051c:	b570      	push	{r4, r5, r6, lr}
 800051e:	f7ff ff4d 	bl	80003bc <measureBattery>
 8000522:	4b08      	ldr	r3, [pc, #32]	; (8000544 <monitorBattery+0x28>)
 8000524:	0005      	movs	r5, r0
 8000526:	781b      	ldrb	r3, [r3, #0]
 8000528:	2b00      	cmp	r3, #0
 800052a:	d001      	beq.n	8000530 <monitorBattery+0x14>
 800052c:	f7ff ff9c 	bl	8000468 <batteryled>
 8000530:	4c05      	ldr	r4, [pc, #20]	; (8000548 <monitorBattery+0x2c>)
 8000532:	002a      	movs	r2, r5
 8000534:	4905      	ldr	r1, [pc, #20]	; (800054c <monitorBattery+0x30>)
 8000536:	0020      	movs	r0, r4
 8000538:	f002 faa6 	bl	8002a88 <siprintf>
 800053c:	0020      	movs	r0, r4
 800053e:	f7ff ffd3 	bl	80004e8 <console>
 8000542:	bd70      	pop	{r4, r5, r6, pc}
 8000544:	20000078 	.word	0x20000078
 8000548:	20000088 	.word	0x20000088
 800054c:	080033fc 	.word	0x080033fc

08000550 <app_main>:
 8000550:	b5f8      	push	{r3, r4, r5, r6, r7, lr}
 8000552:	4c4d      	ldr	r4, [pc, #308]	; (8000688 <app_main+0x138>)
 8000554:	494d      	ldr	r1, [pc, #308]	; (800068c <app_main+0x13c>)
 8000556:	0020      	movs	r0, r4
 8000558:	f002 faea 	bl	8002b30 <strcpy>
 800055c:	0020      	movs	r0, r4
 800055e:	f7ff ffc3 	bl	80004e8 <console>
 8000562:	2140      	movs	r1, #64	; 0x40
 8000564:	484a      	ldr	r0, [pc, #296]	; (8000690 <app_main+0x140>)
 8000566:	f001 f8a5 	bl	80016b4 <HAL_GPIO_ReadPin>
 800056a:	4e4a      	ldr	r6, [pc, #296]	; (8000694 <app_main+0x144>)
 800056c:	2801      	cmp	r0, #1
 800056e:	d000      	beq.n	8000572 <app_main+0x22>
 8000570:	e081      	b.n	8000676 <app_main+0x126>
 8000572:	2300      	movs	r3, #0
 8000574:	3063      	adds	r0, #99	; 0x63
 8000576:	7033      	strb	r3, [r6, #0]
 8000578:	f000 fbe0 	bl	8000d3c <HAL_Delay>
 800057c:	f7ff feb0 	bl	80002e0 <openValve>
 8000580:	20fa      	movs	r0, #250	; 0xfa
 8000582:	0040      	lsls	r0, r0, #1
 8000584:	f000 fbda 	bl	8000d3c <HAL_Delay>
 8000588:	f7ff ff8c 	bl	80004a4 <alert>
 800058c:	f000 fbd0 	bl	8000d30 <HAL_GetTick>
 8000590:	22fa      	movs	r2, #250	; 0xfa
 8000592:	4f41      	ldr	r7, [pc, #260]	; (8000698 <app_main+0x148>)
 8000594:	0005      	movs	r5, r0
 8000596:	683b      	ldr	r3, [r7, #0]
 8000598:	00d2      	lsls	r2, r2, #3
 800059a:	1ac3      	subs	r3, r0, r3
 800059c:	4293      	cmp	r3, r2
 800059e:	d324      	bcc.n	80005ea <app_main+0x9a>
 80005a0:	4b3e      	ldr	r3, [pc, #248]	; (800069c <app_main+0x14c>)
 80005a2:	781a      	ldrb	r2, [r3, #0]
 80005a4:	2a01      	cmp	r2, #1
 80005a6:	d120      	bne.n	80005ea <app_main+0x9a>
 80005a8:	2180      	movs	r1, #128	; 0x80
 80005aa:	20a0      	movs	r0, #160	; 0xa0
 80005ac:	2200      	movs	r2, #0
 80005ae:	0209      	lsls	r1, r1, #8
 80005b0:	05c0      	lsls	r0, r0, #23
 80005b2:	701a      	strb	r2, [r3, #0]
 80005b4:	f001 f87e 	bl	80016b4 <HAL_GPIO_ReadPin>
 80005b8:	2800      	cmp	r0, #0
 80005ba:	d114      	bne.n	80005e6 <app_main+0x96>
 80005bc:	2140      	movs	r1, #64	; 0x40
 80005be:	4834      	ldr	r0, [pc, #208]	; (8000690 <app_main+0x140>)
 80005c0:	f001 f878 	bl	80016b4 <HAL_GPIO_ReadPin>
 80005c4:	2801      	cmp	r0, #1
 80005c6:	d10e      	bne.n	80005e6 <app_main+0x96>
 80005c8:	4b35      	ldr	r3, [pc, #212]	; (80006a0 <app_main+0x150>)
 80005ca:	781b      	ldrb	r3, [r3, #0]
 80005cc:	2b00      	cmp	r3, #0
 80005ce:	d101      	bne.n	80005d4 <app_main+0x84>
 80005d0:	f7ff fe86 	bl	80002e0 <openValve>
 80005d4:	4933      	ldr	r1, [pc, #204]	; (80006a4 <app_main+0x154>)
 80005d6:	0020      	movs	r0, r4
 80005d8:	f002 faaa 	bl	8002b30 <strcpy>
 80005dc:	0020      	movs	r0, r4
 80005de:	f7ff ff83 	bl	80004e8 <console>
 80005e2:	2300      	movs	r3, #0
 80005e4:	7033      	strb	r3, [r6, #0]
 80005e6:	2300      	movs	r3, #0
 80005e8:	603b      	str	r3, [r7, #0]
 80005ea:	7833      	ldrb	r3, [r6, #0]
 80005ec:	2b00      	cmp	r3, #0
 80005ee:	d01c      	beq.n	800062a <app_main+0xda>
 80005f0:	4f2d      	ldr	r7, [pc, #180]	; (80006a8 <app_main+0x158>)
 80005f2:	4a2e      	ldr	r2, [pc, #184]	; (80006ac <app_main+0x15c>)
 80005f4:	683b      	ldr	r3, [r7, #0]
 80005f6:	1aeb      	subs	r3, r5, r3
 80005f8:	4293      	cmp	r3, r2
 80005fa:	d909      	bls.n	8000610 <app_main+0xc0>
 80005fc:	492c      	ldr	r1, [pc, #176]	; (80006b0 <app_main+0x160>)
 80005fe:	0020      	movs	r0, r4
 8000600:	f002 fa96 	bl	8002b30 <strcpy>
 8000604:	0020      	movs	r0, r4
 8000606:	f7ff ff6f 	bl	80004e8 <console>
 800060a:	f7ff ff4b 	bl	80004a4 <alert>
 800060e:	603d      	str	r5, [r7, #0]
 8000610:	4b23      	ldr	r3, [pc, #140]	; (80006a0 <app_main+0x150>)
 8000612:	781b      	ldrb	r3, [r3, #0]
 8000614:	2b01      	cmp	r3, #1
 8000616:	d108      	bne.n	800062a <app_main+0xda>
 8000618:	f7ff fe9a 	bl	8000350 <closeValve>
 800061c:	0020      	movs	r0, r4
 800061e:	4925      	ldr	r1, [pc, #148]	; (80006b4 <app_main+0x164>)
 8000620:	f002 fa86 	bl	8002b30 <strcpy>
 8000624:	0020      	movs	r0, r4
 8000626:	f7ff ff5f 	bl	80004e8 <console>
 800062a:	4f23      	ldr	r7, [pc, #140]	; (80006b8 <app_main+0x168>)
 800062c:	783b      	ldrb	r3, [r7, #0]
 800062e:	2b01      	cmp	r3, #1
 8000630:	d105      	bne.n	800063e <app_main+0xee>
 8000632:	2300      	movs	r3, #0
 8000634:	703b      	strb	r3, [r7, #0]
 8000636:	f7ff fef9 	bl	800042c <statusled>
 800063a:	f7ff ff6f 	bl	800051c <monitorBattery>
 800063e:	4b1f      	ldr	r3, [pc, #124]	; (80006bc <app_main+0x16c>)
 8000640:	681b      	ldr	r3, [r3, #0]
 8000642:	1aed      	subs	r5, r5, r3
 8000644:	4b1e      	ldr	r3, [pc, #120]	; (80006c0 <app_main+0x170>)
 8000646:	429d      	cmp	r5, r3
 8000648:	d9a0      	bls.n	800058c <app_main+0x3c>
 800064a:	7833      	ldrb	r3, [r6, #0]
 800064c:	b2dd      	uxtb	r5, r3
 800064e:	2b00      	cmp	r3, #0
 8000650:	d19c      	bne.n	800058c <app_main+0x3c>
 8000652:	491c      	ldr	r1, [pc, #112]	; (80006c4 <app_main+0x174>)
 8000654:	0020      	movs	r0, r4
 8000656:	f002 fa6b 	bl	8002b30 <strcpy>
 800065a:	0020      	movs	r0, r4
 800065c:	f7ff ff44 	bl	80004e8 <console>
 8000660:	4819      	ldr	r0, [pc, #100]	; (80006c8 <app_main+0x178>)
 8000662:	703d      	strb	r5, [r7, #0]
 8000664:	f001 fc1a 	bl	8001e9c <HAL_TIM_Base_Start_IT>
 8000668:	f000 fb7a 	bl	8000d60 <HAL_SuspendTick>
 800066c:	2101      	movs	r1, #1
 800066e:	0028      	movs	r0, r5
 8000670:	f001 f842 	bl	80016f8 <HAL_PWR_EnterSLEEPMode>
 8000674:	e78a      	b.n	800058c <app_main+0x3c>
 8000676:	2301      	movs	r3, #1
 8000678:	2064      	movs	r0, #100	; 0x64
 800067a:	7033      	strb	r3, [r6, #0]
 800067c:	f000 fb5e 	bl	8000d3c <HAL_Delay>
 8000680:	f7ff fe66 	bl	8000350 <closeValve>
 8000684:	e77c      	b.n	8000580 <app_main+0x30>
 8000686:	46c0      	nop			; (mov r8, r8)
 8000688:	20000088 	.word	0x20000088
 800068c:	08003412 	.word	0x08003412
 8000690:	50000400 	.word	0x50000400
 8000694:	20000081 	.word	0x20000081
 8000698:	20000084 	.word	0x20000084
 800069c:	20000080 	.word	0x20000080
 80006a0:	200000b4 	.word	0x200000b4
 80006a4:	08003420 	.word	0x08003420
 80006a8:	2000007c 	.word	0x2000007c
 80006ac:	00001388 	.word	0x00001388
 80006b0:	0800342d 	.word	0x0800342d
 80006b4:	08003435 	.word	0x08003435
 80006b8:	200000b5 	.word	0x200000b5
 80006bc:	200000b0 	.word	0x200000b0
 80006c0:	0000270f 	.word	0x0000270f
 80006c4:	08003444 	.word	0x08003444
 80006c8:	2000011c 	.word	0x2000011c

080006cc <SystemClock_Config>:
 80006cc:	b500      	push	{lr}
 80006ce:	b08d      	sub	sp, #52	; 0x34
 80006d0:	2218      	movs	r2, #24
 80006d2:	2100      	movs	r1, #0
 80006d4:	a806      	add	r0, sp, #24
 80006d6:	f002 f9f7 	bl	8002ac8 <memset>
 80006da:	2100      	movs	r1, #0
 80006dc:	2214      	movs	r2, #20
 80006de:	4668      	mov	r0, sp
 80006e0:	f002 f9f2 	bl	8002ac8 <memset>
 80006e4:	2302      	movs	r3, #2
 80006e6:	9305      	str	r3, [sp, #20]
 80006e8:	33fe      	adds	r3, #254	; 0xfe
 80006ea:	9308      	str	r3, [sp, #32]
 80006ec:	2380      	movs	r3, #128	; 0x80
 80006ee:	015b      	lsls	r3, r3, #5
 80006f0:	9309      	str	r3, [sp, #36]	; 0x24
 80006f2:	2340      	movs	r3, #64	; 0x40
 80006f4:	a805      	add	r0, sp, #20
 80006f6:	930a      	str	r3, [sp, #40]	; 0x28
 80006f8:	f001 f80e 	bl	8001718 <HAL_RCC_OscConfig>
 80006fc:	1e01      	subs	r1, r0, #0
 80006fe:	d001      	beq.n	8000704 <SystemClock_Config+0x38>
 8000700:	b672      	cpsid	i
 8000702:	e7fe      	b.n	8000702 <SystemClock_Config+0x36>
 8000704:	2307      	movs	r3, #7
 8000706:	9001      	str	r0, [sp, #4]
 8000708:	9002      	str	r0, [sp, #8]
 800070a:	9003      	str	r0, [sp, #12]
 800070c:	9004      	str	r0, [sp, #16]
 800070e:	4668      	mov	r0, sp
 8000710:	9300      	str	r3, [sp, #0]
 8000712:	f001 f95b 	bl	80019cc <HAL_RCC_ClockConfig>
 8000716:	2800      	cmp	r0, #0
 8000718:	d001      	beq.n	800071e <SystemClock_Config+0x52>
 800071a:	b672      	cpsid	i
 800071c:	e7fe      	b.n	800071c <SystemClock_Config+0x50>
 800071e:	b00d      	add	sp, #52	; 0x34
 8000720:	bd00      	pop	{pc}
	...

08000724 <main>:
 8000724:	b5f0      	push	{r4, r5, r6, r7, lr}
 8000726:	2604      	movs	r6, #4
 8000728:	2501      	movs	r5, #1
 800072a:	b08f      	sub	sp, #60	; 0x3c
 800072c:	f000 fae8 	bl	8000d00 <HAL_Init>
 8000730:	f7ff ffcc 	bl	80006cc <SystemClock_Config>
 8000734:	2214      	movs	r2, #20
 8000736:	2100      	movs	r1, #0
 8000738:	a807      	add	r0, sp, #28
 800073a:	f002 f9c5 	bl	8002ac8 <memset>
 800073e:	2102      	movs	r1, #2
 8000740:	2488      	movs	r4, #136	; 0x88
 8000742:	20a0      	movs	r0, #160	; 0xa0
 8000744:	4b99      	ldr	r3, [pc, #612]	; (80009ac <main+0x288>)
 8000746:	00a4      	lsls	r4, r4, #2
 8000748:	6b5a      	ldr	r2, [r3, #52]	; 0x34
 800074a:	05c0      	lsls	r0, r0, #23
 800074c:	4332      	orrs	r2, r6
 800074e:	635a      	str	r2, [r3, #52]	; 0x34
 8000750:	6b5a      	ldr	r2, [r3, #52]	; 0x34
 8000752:	4f97      	ldr	r7, [pc, #604]	; (80009b0 <main+0x28c>)
 8000754:	4032      	ands	r2, r6
 8000756:	9201      	str	r2, [sp, #4]
 8000758:	9a01      	ldr	r2, [sp, #4]
 800075a:	6b5a      	ldr	r2, [r3, #52]	; 0x34
 800075c:	432a      	orrs	r2, r5
 800075e:	635a      	str	r2, [r3, #52]	; 0x34
 8000760:	6b5a      	ldr	r2, [r3, #52]	; 0x34
 8000762:	402a      	ands	r2, r5
 8000764:	9202      	str	r2, [sp, #8]
 8000766:	9a02      	ldr	r2, [sp, #8]
 8000768:	6b5a      	ldr	r2, [r3, #52]	; 0x34
 800076a:	430a      	orrs	r2, r1
 800076c:	635a      	str	r2, [r3, #52]	; 0x34
 800076e:	6b5b      	ldr	r3, [r3, #52]	; 0x34
 8000770:	2200      	movs	r2, #0
 8000772:	400b      	ands	r3, r1
 8000774:	9303      	str	r3, [sp, #12]
 8000776:	0021      	movs	r1, r4
 8000778:	9b03      	ldr	r3, [sp, #12]
 800077a:	f000 ffa1 	bl	80016c0 <HAL_GPIO_WritePin>
 800077e:	2200      	movs	r2, #0
 8000780:	498c      	ldr	r1, [pc, #560]	; (80009b4 <main+0x290>)
 8000782:	488d      	ldr	r0, [pc, #564]	; (80009b8 <main+0x294>)
 8000784:	f000 ff9c 	bl	80016c0 <HAL_GPIO_WritePin>
 8000788:	2380      	movs	r3, #128	; 0x80
 800078a:	488c      	ldr	r0, [pc, #560]	; (80009bc <main+0x298>)
 800078c:	019b      	lsls	r3, r3, #6
 800078e:	a907      	add	r1, sp, #28
 8000790:	9307      	str	r3, [sp, #28]
 8000792:	9708      	str	r7, [sp, #32]
 8000794:	9509      	str	r5, [sp, #36]	; 0x24
 8000796:	f000 fed5 	bl	8001544 <HAL_GPIO_Init>
 800079a:	20a0      	movs	r0, #160	; 0xa0
 800079c:	9407      	str	r4, [sp, #28]
 800079e:	2400      	movs	r4, #0
 80007a0:	a907      	add	r1, sp, #28
 80007a2:	05c0      	lsls	r0, r0, #23
 80007a4:	9508      	str	r5, [sp, #32]
 80007a6:	9409      	str	r4, [sp, #36]	; 0x24
 80007a8:	940a      	str	r4, [sp, #40]	; 0x28
 80007aa:	f000 fecb 	bl	8001544 <HAL_GPIO_Init>
 80007ae:	4b81      	ldr	r3, [pc, #516]	; (80009b4 <main+0x290>)
 80007b0:	4881      	ldr	r0, [pc, #516]	; (80009b8 <main+0x294>)
 80007b2:	a907      	add	r1, sp, #28
 80007b4:	9307      	str	r3, [sp, #28]
 80007b6:	9508      	str	r5, [sp, #32]
 80007b8:	9409      	str	r4, [sp, #36]	; 0x24
 80007ba:	940a      	str	r4, [sp, #40]	; 0x28
 80007bc:	f000 fec2 	bl	8001544 <HAL_GPIO_Init>
 80007c0:	2380      	movs	r3, #128	; 0x80
 80007c2:	20a0      	movs	r0, #160	; 0xa0
 80007c4:	021b      	lsls	r3, r3, #8
 80007c6:	a907      	add	r1, sp, #28
 80007c8:	05c0      	lsls	r0, r0, #23
 80007ca:	9307      	str	r3, [sp, #28]
 80007cc:	9708      	str	r7, [sp, #32]
 80007ce:	9409      	str	r4, [sp, #36]	; 0x24
 80007d0:	f000 feb8 	bl	8001544 <HAL_GPIO_Init>
 80007d4:	2340      	movs	r3, #64	; 0x40
 80007d6:	9708      	str	r7, [sp, #32]
 80007d8:	270c      	movs	r7, #12
 80007da:	4877      	ldr	r0, [pc, #476]	; (80009b8 <main+0x294>)
 80007dc:	a907      	add	r1, sp, #28
 80007de:	9307      	str	r3, [sp, #28]
 80007e0:	9509      	str	r5, [sp, #36]	; 0x24
 80007e2:	f000 feaf 	bl	8001544 <HAL_GPIO_Init>
 80007e6:	0022      	movs	r2, r4
 80007e8:	0021      	movs	r1, r4
 80007ea:	2007      	movs	r0, #7
 80007ec:	f000 fe5a 	bl	80014a4 <HAL_NVIC_SetPriority>
 80007f0:	2007      	movs	r0, #7
 80007f2:	f000 fe81 	bl	80014f8 <HAL_NVIC_EnableIRQ>
 80007f6:	003a      	movs	r2, r7
 80007f8:	0021      	movs	r1, r4
 80007fa:	a804      	add	r0, sp, #16
 80007fc:	f002 f964 	bl	8002ac8 <memset>
 8000800:	221c      	movs	r2, #28
 8000802:	0021      	movs	r1, r4
 8000804:	a807      	add	r0, sp, #28
 8000806:	f002 f95f 	bl	8002ac8 <memset>
 800080a:	4d6d      	ldr	r5, [pc, #436]	; (80009c0 <main+0x29c>)
 800080c:	4b6d      	ldr	r3, [pc, #436]	; (80009c4 <main+0x2a0>)
 800080e:	0028      	movs	r0, r5
 8000810:	602b      	str	r3, [r5, #0]
 8000812:	4b6d      	ldr	r3, [pc, #436]	; (80009c8 <main+0x2a4>)
 8000814:	606f      	str	r7, [r5, #4]
 8000816:	60eb      	str	r3, [r5, #12]
 8000818:	2380      	movs	r3, #128	; 0x80
 800081a:	60ac      	str	r4, [r5, #8]
 800081c:	612c      	str	r4, [r5, #16]
 800081e:	61ab      	str	r3, [r5, #24]
 8000820:	f001 fc80 	bl	8002124 <HAL_TIM_PWM_Init>
 8000824:	42a0      	cmp	r0, r4
 8000826:	d001      	beq.n	800082c <main+0x108>
 8000828:	b672      	cpsid	i
 800082a:	e7fe      	b.n	800082a <main+0x106>
 800082c:	9004      	str	r0, [sp, #16]
 800082e:	9006      	str	r0, [sp, #24]
 8000830:	a904      	add	r1, sp, #16
 8000832:	0028      	movs	r0, r5
 8000834:	f001 fe54 	bl	80024e0 <HAL_TIMEx_MasterConfigSynchronization>
 8000838:	1e02      	subs	r2, r0, #0
 800083a:	d001      	beq.n	8000840 <main+0x11c>
 800083c:	b672      	cpsid	i
 800083e:	e7fe      	b.n	800083e <main+0x11a>
 8000840:	2360      	movs	r3, #96	; 0x60
 8000842:	9008      	str	r0, [sp, #32]
 8000844:	9009      	str	r0, [sp, #36]	; 0x24
 8000846:	900b      	str	r0, [sp, #44]	; 0x2c
 8000848:	a907      	add	r1, sp, #28
 800084a:	0028      	movs	r0, r5
 800084c:	9307      	str	r3, [sp, #28]
 800084e:	f001 fccf 	bl	80021f0 <HAL_TIM_PWM_ConfigChannel>
 8000852:	1e04      	subs	r4, r0, #0
 8000854:	d001      	beq.n	800085a <main+0x136>
 8000856:	b672      	cpsid	i
 8000858:	e7fe      	b.n	8000858 <main+0x134>
 800085a:	0028      	movs	r0, r5
 800085c:	f000 f95a 	bl	8000b14 <HAL_TIM_MspPostInit>
 8000860:	003a      	movs	r2, r7
 8000862:	0021      	movs	r1, r4
 8000864:	a807      	add	r0, sp, #28
 8000866:	f002 f92f 	bl	8002ac8 <memset>
 800086a:	4d58      	ldr	r5, [pc, #352]	; (80009cc <main+0x2a8>)
 800086c:	4b58      	ldr	r3, [pc, #352]	; (80009d0 <main+0x2ac>)
 800086e:	0028      	movs	r0, r5
 8000870:	602b      	str	r3, [r5, #0]
 8000872:	23c0      	movs	r3, #192	; 0xc0
 8000874:	061b      	lsls	r3, r3, #24
 8000876:	606b      	str	r3, [r5, #4]
 8000878:	2380      	movs	r3, #128	; 0x80
 800087a:	039b      	lsls	r3, r3, #14
 800087c:	612b      	str	r3, [r5, #16]
 800087e:	2308      	movs	r3, #8
 8000880:	61eb      	str	r3, [r5, #28]
 8000882:	1c6b      	adds	r3, r5, #1
 8000884:	77dc      	strb	r4, [r3, #31]
 8000886:	002b      	movs	r3, r5
 8000888:	332c      	adds	r3, #44	; 0x2c
 800088a:	701c      	strb	r4, [r3, #0]
 800088c:	2307      	movs	r3, #7
 800088e:	636b      	str	r3, [r5, #52]	; 0x34
 8000890:	63ab      	str	r3, [r5, #56]	; 0x38
 8000892:	002b      	movs	r3, r5
 8000894:	832c      	strh	r4, [r5, #24]
 8000896:	333c      	adds	r3, #60	; 0x3c
 8000898:	60ac      	str	r4, [r5, #8]
 800089a:	60ec      	str	r4, [r5, #12]
 800089c:	616e      	str	r6, [r5, #20]
 800089e:	76ac      	strb	r4, [r5, #26]
 80008a0:	626c      	str	r4, [r5, #36]	; 0x24
 80008a2:	62ac      	str	r4, [r5, #40]	; 0x28
 80008a4:	632c      	str	r4, [r5, #48]	; 0x30
 80008a6:	701c      	strb	r4, [r3, #0]
 80008a8:	64ec      	str	r4, [r5, #76]	; 0x4c
 80008aa:	f000 fa6d 	bl	8000d88 <HAL_ADC_Init>
 80008ae:	2800      	cmp	r0, #0
 80008b0:	d001      	beq.n	80008b6 <main+0x192>
 80008b2:	b672      	cpsid	i
 80008b4:	e7fe      	b.n	80008b4 <main+0x190>
 80008b6:	4b47      	ldr	r3, [pc, #284]	; (80009d4 <main+0x2b0>)
 80008b8:	9008      	str	r0, [sp, #32]
 80008ba:	9009      	str	r0, [sp, #36]	; 0x24
 80008bc:	a907      	add	r1, sp, #28
 80008be:	0028      	movs	r0, r5
 80008c0:	9307      	str	r3, [sp, #28]
 80008c2:	f000 fbd3 	bl	800106c <HAL_ADC_ConfigChannel>
 80008c6:	2800      	cmp	r0, #0
 80008c8:	d001      	beq.n	80008ce <main+0x1aa>
 80008ca:	b672      	cpsid	i
 80008cc:	e7fe      	b.n	80008cc <main+0x1a8>
 80008ce:	0028      	movs	r0, r5
 80008d0:	a907      	add	r1, sp, #28
 80008d2:	9608      	str	r6, [sp, #32]
 80008d4:	f000 fbca 	bl	800106c <HAL_ADC_ConfigChannel>
 80008d8:	2800      	cmp	r0, #0
 80008da:	d001      	beq.n	80008e0 <main+0x1bc>
 80008dc:	b672      	cpsid	i
 80008de:	e7fe      	b.n	80008de <main+0x1ba>
 80008e0:	2308      	movs	r3, #8
 80008e2:	0028      	movs	r0, r5
 80008e4:	a907      	add	r1, sp, #28
 80008e6:	9308      	str	r3, [sp, #32]
 80008e8:	f000 fbc0 	bl	800106c <HAL_ADC_ConfigChannel>
 80008ec:	2800      	cmp	r0, #0
 80008ee:	d001      	beq.n	80008f4 <main+0x1d0>
 80008f0:	b672      	cpsid	i
 80008f2:	e7fe      	b.n	80008f2 <main+0x1ce>
 80008f4:	0028      	movs	r0, r5
 80008f6:	a907      	add	r1, sp, #28
 80008f8:	9708      	str	r7, [sp, #32]
 80008fa:	f000 fbb7 	bl	800106c <HAL_ADC_ConfigChannel>
 80008fe:	2800      	cmp	r0, #0
 8000900:	d001      	beq.n	8000906 <main+0x1e2>
 8000902:	b672      	cpsid	i
 8000904:	e7fe      	b.n	8000904 <main+0x1e0>
 8000906:	2310      	movs	r3, #16
 8000908:	0028      	movs	r0, r5
 800090a:	a907      	add	r1, sp, #28
 800090c:	9308      	str	r3, [sp, #32]
 800090e:	f000 fbad 	bl	800106c <HAL_ADC_ConfigChannel>
 8000912:	2800      	cmp	r0, #0
 8000914:	d001      	beq.n	800091a <main+0x1f6>
 8000916:	b672      	cpsid	i
 8000918:	e7fe      	b.n	8000918 <main+0x1f4>
 800091a:	2314      	movs	r3, #20
 800091c:	0028      	movs	r0, r5
 800091e:	a907      	add	r1, sp, #28
 8000920:	9308      	str	r3, [sp, #32]
 8000922:	f000 fba3 	bl	800106c <HAL_ADC_ConfigChannel>
 8000926:	2800      	cmp	r0, #0
 8000928:	d001      	beq.n	800092e <main+0x20a>
 800092a:	b672      	cpsid	i
 800092c:	e7fe      	b.n	800092c <main+0x208>
 800092e:	2318      	movs	r3, #24
 8000930:	0028      	movs	r0, r5
 8000932:	a907      	add	r1, sp, #28
 8000934:	9308      	str	r3, [sp, #32]
 8000936:	f000 fb99 	bl	800106c <HAL_ADC_ConfigChannel>
 800093a:	2800      	cmp	r0, #0
 800093c:	d001      	beq.n	8000942 <main+0x21e>
 800093e:	b672      	cpsid	i
 8000940:	e7fe      	b.n	8000940 <main+0x21c>
 8000942:	231c      	movs	r3, #28
 8000944:	0028      	movs	r0, r5
 8000946:	a907      	add	r1, sp, #28
 8000948:	9308      	str	r3, [sp, #32]
 800094a:	f000 fb8f 	bl	800106c <HAL_ADC_ConfigChannel>
 800094e:	1e03      	subs	r3, r0, #0
 8000950:	d001      	beq.n	8000956 <main+0x232>
 8000952:	b672      	cpsid	i
 8000954:	e7fe      	b.n	8000954 <main+0x230>
 8000956:	4820      	ldr	r0, [pc, #128]	; (80009d8 <main+0x2b4>)
 8000958:	4a20      	ldr	r2, [pc, #128]	; (80009dc <main+0x2b8>)
 800095a:	6083      	str	r3, [r0, #8]
 800095c:	6002      	str	r2, [r0, #0]
 800095e:	22e1      	movs	r2, #225	; 0xe1
 8000960:	0252      	lsls	r2, r2, #9
 8000962:	6042      	str	r2, [r0, #4]
 8000964:	220c      	movs	r2, #12
 8000966:	60c3      	str	r3, [r0, #12]
 8000968:	6103      	str	r3, [r0, #16]
 800096a:	6183      	str	r3, [r0, #24]
 800096c:	61c3      	str	r3, [r0, #28]
 800096e:	6203      	str	r3, [r0, #32]
 8000970:	6243      	str	r3, [r0, #36]	; 0x24
 8000972:	6283      	str	r3, [r0, #40]	; 0x28
 8000974:	6142      	str	r2, [r0, #20]
 8000976:	f002 f853 	bl	8002a20 <HAL_UART_Init>
 800097a:	1e03      	subs	r3, r0, #0
 800097c:	d001      	beq.n	8000982 <main+0x25e>
 800097e:	b672      	cpsid	i
 8000980:	e7fe      	b.n	8000980 <main+0x25c>
 8000982:	4817      	ldr	r0, [pc, #92]	; (80009e0 <main+0x2bc>)
 8000984:	4a17      	ldr	r2, [pc, #92]	; (80009e4 <main+0x2c0>)
 8000986:	6083      	str	r3, [r0, #8]
 8000988:	6103      	str	r3, [r0, #16]
 800098a:	6143      	str	r3, [r0, #20]
 800098c:	2380      	movs	r3, #128	; 0x80
 800098e:	6002      	str	r2, [r0, #0]
 8000990:	4a15      	ldr	r2, [pc, #84]	; (80009e8 <main+0x2c4>)
 8000992:	6183      	str	r3, [r0, #24]
 8000994:	6042      	str	r2, [r0, #4]
 8000996:	4a15      	ldr	r2, [pc, #84]	; (80009ec <main+0x2c8>)
 8000998:	60c2      	str	r2, [r0, #12]
 800099a:	f001 fb99 	bl	80020d0 <HAL_TIM_Base_Init>
 800099e:	2800      	cmp	r0, #0
 80009a0:	d001      	beq.n	80009a6 <main+0x282>
 80009a2:	b672      	cpsid	i
 80009a4:	e7fe      	b.n	80009a4 <main+0x280>
 80009a6:	f7ff fdd3 	bl	8000550 <app_main>
 80009aa:	e7fe      	b.n	80009aa <main+0x286>
 80009ac:	40021000 	.word	0x40021000
 80009b0:	10210000 	.word	0x10210000
 80009b4:	00008380 	.word	0x00008380
 80009b8:	50000400 	.word	0x50000400
 80009bc:	50000800 	.word	0x50000800
 80009c0:	20000168 	.word	0x20000168
 80009c4:	40000400 	.word	0x40000400
 80009c8:	00000834 	.word	0x00000834
 80009cc:	200000b8 	.word	0x200000b8
 80009d0:	40012400 	.word	0x40012400
 80009d4:	30001000 	.word	0x30001000
 80009d8:	200001b4 	.word	0x200001b4
 80009dc:	40004400 	.word	0x40004400
 80009e0:	2000011c 	.word	0x2000011c
 80009e4:	40014400 	.word	0x40014400
 80009e8:	00002aef 	.word	0x00002aef
 80009ec:	0000ffdd 	.word	0x0000ffdd

080009f0 <Error_Handler>:
 80009f0:	b672      	cpsid	i
 80009f2:	e7fe      	b.n	80009f2 <Error_Handler+0x2>

080009f4 <HAL_MspInit>:
 80009f4:	2101      	movs	r1, #1
 80009f6:	4b0a      	ldr	r3, [pc, #40]	; (8000a20 <HAL_MspInit+0x2c>)
 80009f8:	b082      	sub	sp, #8
 80009fa:	6c1a      	ldr	r2, [r3, #64]	; 0x40
 80009fc:	430a      	orrs	r2, r1
 80009fe:	641a      	str	r2, [r3, #64]	; 0x40
 8000a00:	6c1a      	ldr	r2, [r3, #64]	; 0x40
 8000a02:	400a      	ands	r2, r1
 8000a04:	2180      	movs	r1, #128	; 0x80
 8000a06:	9200      	str	r2, [sp, #0]
 8000a08:	9a00      	ldr	r2, [sp, #0]
 8000a0a:	6bda      	ldr	r2, [r3, #60]	; 0x3c
 8000a0c:	0549      	lsls	r1, r1, #21
 8000a0e:	430a      	orrs	r2, r1
 8000a10:	63da      	str	r2, [r3, #60]	; 0x3c
 8000a12:	6bdb      	ldr	r3, [r3, #60]	; 0x3c
 8000a14:	400b      	ands	r3, r1
 8000a16:	9301      	str	r3, [sp, #4]
 8000a18:	9b01      	ldr	r3, [sp, #4]
 8000a1a:	b002      	add	sp, #8
 8000a1c:	4770      	bx	lr
 8000a1e:	46c0      	nop			; (mov r8, r8)
 8000a20:	40021000 	.word	0x40021000

08000a24 <HAL_ADC_MspInit>:
 8000a24:	b510      	push	{r4, lr}
 8000a26:	0004      	movs	r4, r0
 8000a28:	b08e      	sub	sp, #56	; 0x38
 8000a2a:	2214      	movs	r2, #20
 8000a2c:	2100      	movs	r1, #0
 8000a2e:	a802      	add	r0, sp, #8
 8000a30:	f002 f84a 	bl	8002ac8 <memset>
 8000a34:	221c      	movs	r2, #28
 8000a36:	2100      	movs	r1, #0
 8000a38:	a807      	add	r0, sp, #28
 8000a3a:	f002 f845 	bl	8002ac8 <memset>
 8000a3e:	4b17      	ldr	r3, [pc, #92]	; (8000a9c <HAL_ADC_MspInit+0x78>)
 8000a40:	6822      	ldr	r2, [r4, #0]
 8000a42:	429a      	cmp	r2, r3
 8000a44:	d127      	bne.n	8000a96 <HAL_ADC_MspInit+0x72>
 8000a46:	2380      	movs	r3, #128	; 0x80
 8000a48:	a807      	add	r0, sp, #28
 8000a4a:	01db      	lsls	r3, r3, #7
 8000a4c:	9307      	str	r3, [sp, #28]
 8000a4e:	f001 f883 	bl	8001b58 <HAL_RCCEx_PeriphCLKConfig>
 8000a52:	2800      	cmp	r0, #0
 8000a54:	d001      	beq.n	8000a5a <HAL_ADC_MspInit+0x36>
 8000a56:	f7ff ffcb 	bl	80009f0 <Error_Handler>
 8000a5a:	2180      	movs	r1, #128	; 0x80
 8000a5c:	4b10      	ldr	r3, [pc, #64]	; (8000aa0 <HAL_ADC_MspInit+0x7c>)
 8000a5e:	0349      	lsls	r1, r1, #13
 8000a60:	6c1a      	ldr	r2, [r3, #64]	; 0x40
 8000a62:	20a0      	movs	r0, #160	; 0xa0
 8000a64:	430a      	orrs	r2, r1
 8000a66:	641a      	str	r2, [r3, #64]	; 0x40
 8000a68:	6c1a      	ldr	r2, [r3, #64]	; 0x40
 8000a6a:	05c0      	lsls	r0, r0, #23
 8000a6c:	400a      	ands	r2, r1
 8000a6e:	2101      	movs	r1, #1
 8000a70:	9200      	str	r2, [sp, #0]
 8000a72:	9a00      	ldr	r2, [sp, #0]
 8000a74:	6b5a      	ldr	r2, [r3, #52]	; 0x34
 8000a76:	430a      	orrs	r2, r1
 8000a78:	635a      	str	r2, [r3, #52]	; 0x34
 8000a7a:	6b5b      	ldr	r3, [r3, #52]	; 0x34
 8000a7c:	400b      	ands	r3, r1
 8000a7e:	9301      	str	r3, [sp, #4]
 8000a80:	9b01      	ldr	r3, [sp, #4]
 8000a82:	2380      	movs	r3, #128	; 0x80
 8000a84:	015b      	lsls	r3, r3, #5
 8000a86:	9302      	str	r3, [sp, #8]
 8000a88:	2303      	movs	r3, #3
 8000a8a:	9303      	str	r3, [sp, #12]
 8000a8c:	2300      	movs	r3, #0
 8000a8e:	a902      	add	r1, sp, #8
 8000a90:	9304      	str	r3, [sp, #16]
 8000a92:	f000 fd57 	bl	8001544 <HAL_GPIO_Init>
 8000a96:	b00e      	add	sp, #56	; 0x38
 8000a98:	bd10      	pop	{r4, pc}
 8000a9a:	46c0      	nop			; (mov r8, r8)
 8000a9c:	40012400 	.word	0x40012400
 8000aa0:	40021000 	.word	0x40021000

08000aa4 <HAL_TIM_PWM_MspInit>:
 8000aa4:	b507      	push	{r0, r1, r2, lr}
 8000aa6:	4b0b      	ldr	r3, [pc, #44]	; (8000ad4 <HAL_TIM_PWM_MspInit+0x30>)
 8000aa8:	6802      	ldr	r2, [r0, #0]
 8000aaa:	429a      	cmp	r2, r3
 8000aac:	d110      	bne.n	8000ad0 <HAL_TIM_PWM_MspInit+0x2c>
 8000aae:	2102      	movs	r1, #2
 8000ab0:	4b09      	ldr	r3, [pc, #36]	; (8000ad8 <HAL_TIM_PWM_MspInit+0x34>)
 8000ab2:	2010      	movs	r0, #16
 8000ab4:	6bda      	ldr	r2, [r3, #60]	; 0x3c
 8000ab6:	430a      	orrs	r2, r1
 8000ab8:	63da      	str	r2, [r3, #60]	; 0x3c
 8000aba:	2200      	movs	r2, #0
 8000abc:	6bdb      	ldr	r3, [r3, #60]	; 0x3c
 8000abe:	400b      	ands	r3, r1
 8000ac0:	9301      	str	r3, [sp, #4]
 8000ac2:	0011      	movs	r1, r2
 8000ac4:	9b01      	ldr	r3, [sp, #4]
 8000ac6:	f000 fced 	bl	80014a4 <HAL_NVIC_SetPriority>
 8000aca:	2010      	movs	r0, #16
 8000acc:	f000 fd14 	bl	80014f8 <HAL_NVIC_EnableIRQ>
 8000ad0:	bd07      	pop	{r0, r1, r2, pc}
 8000ad2:	46c0      	nop			; (mov r8, r8)
 8000ad4:	40000400 	.word	0x40000400
 8000ad8:	40021000 	.word	0x40021000

08000adc <HAL_TIM_Base_MspInit>:
 8000adc:	b507      	push	{r0, r1, r2, lr}
 8000ade:	4b0b      	ldr	r3, [pc, #44]	; (8000b0c <HAL_TIM_Base_MspInit+0x30>)
 8000ae0:	6802      	ldr	r2, [r0, #0]
 8000ae2:	429a      	cmp	r2, r3
 8000ae4:	d111      	bne.n	8000b0a <HAL_TIM_Base_MspInit+0x2e>
 8000ae6:	2180      	movs	r1, #128	; 0x80
 8000ae8:	4b09      	ldr	r3, [pc, #36]	; (8000b10 <HAL_TIM_Base_MspInit+0x34>)
 8000aea:	0289      	lsls	r1, r1, #10
 8000aec:	6c1a      	ldr	r2, [r3, #64]	; 0x40
 8000aee:	2015      	movs	r0, #21
 8000af0:	430a      	orrs	r2, r1
 8000af2:	641a      	str	r2, [r3, #64]	; 0x40
 8000af4:	2200      	movs	r2, #0
 8000af6:	6c1b      	ldr	r3, [r3, #64]	; 0x40
 8000af8:	400b      	ands	r3, r1
 8000afa:	9301      	str	r3, [sp, #4]
 8000afc:	0011      	movs	r1, r2
 8000afe:	9b01      	ldr	r3, [sp, #4]
 8000b00:	f000 fcd0 	bl	80014a4 <HAL_NVIC_SetPriority>
 8000b04:	2015      	movs	r0, #21
 8000b06:	f000 fcf7 	bl	80014f8 <HAL_NVIC_EnableIRQ>
 8000b0a:	bd07      	pop	{r0, r1, r2, pc}
 8000b0c:	40014400 	.word	0x40014400
 8000b10:	40021000 	.word	0x40021000

08000b14 <HAL_TIM_MspPostInit>:
 8000b14:	b510      	push	{r4, lr}
 8000b16:	0004      	movs	r4, r0
 8000b18:	b086      	sub	sp, #24
 8000b1a:	2214      	movs	r2, #20
 8000b1c:	2100      	movs	r1, #0
 8000b1e:	a801      	add	r0, sp, #4
 8000b20:	f001 ffd2 	bl	8002ac8 <memset>
 8000b24:	4b0c      	ldr	r3, [pc, #48]	; (8000b58 <HAL_TIM_MspPostInit+0x44>)
 8000b26:	6822      	ldr	r2, [r4, #0]
 8000b28:	429a      	cmp	r2, r3
 8000b2a:	d112      	bne.n	8000b52 <HAL_TIM_MspPostInit+0x3e>
 8000b2c:	2104      	movs	r1, #4
 8000b2e:	4b0b      	ldr	r3, [pc, #44]	; (8000b5c <HAL_TIM_MspPostInit+0x48>)
 8000b30:	480b      	ldr	r0, [pc, #44]	; (8000b60 <HAL_TIM_MspPostInit+0x4c>)
 8000b32:	6b5a      	ldr	r2, [r3, #52]	; 0x34
 8000b34:	430a      	orrs	r2, r1
 8000b36:	635a      	str	r2, [r3, #52]	; 0x34
 8000b38:	6b5b      	ldr	r3, [r3, #52]	; 0x34
 8000b3a:	400b      	ands	r3, r1
 8000b3c:	9300      	str	r3, [sp, #0]
 8000b3e:	9b00      	ldr	r3, [sp, #0]
 8000b40:	2340      	movs	r3, #64	; 0x40
 8000b42:	9301      	str	r3, [sp, #4]
 8000b44:	3b3e      	subs	r3, #62	; 0x3e
 8000b46:	9302      	str	r3, [sp, #8]
 8000b48:	a901      	add	r1, sp, #4
 8000b4a:	3b01      	subs	r3, #1
 8000b4c:	9305      	str	r3, [sp, #20]
 8000b4e:	f000 fcf9 	bl	8001544 <HAL_GPIO_Init>
 8000b52:	b006      	add	sp, #24
 8000b54:	bd10      	pop	{r4, pc}
 8000b56:	46c0      	nop			; (mov r8, r8)
 8000b58:	40000400 	.word	0x40000400
 8000b5c:	40021000 	.word	0x40021000
 8000b60:	50000800 	.word	0x50000800

08000b64 <HAL_UART_MspInit>:
 8000b64:	b510      	push	{r4, lr}
 8000b66:	0004      	movs	r4, r0
 8000b68:	b088      	sub	sp, #32
 8000b6a:	2214      	movs	r2, #20
 8000b6c:	2100      	movs	r1, #0
 8000b6e:	a803      	add	r0, sp, #12
 8000b70:	f001 ffaa 	bl	8002ac8 <memset>
 8000b74:	4b10      	ldr	r3, [pc, #64]	; (8000bb8 <HAL_UART_MspInit+0x54>)
 8000b76:	6822      	ldr	r2, [r4, #0]
 8000b78:	429a      	cmp	r2, r3
 8000b7a:	d11b      	bne.n	8000bb4 <HAL_UART_MspInit+0x50>
 8000b7c:	2180      	movs	r1, #128	; 0x80
 8000b7e:	4b0f      	ldr	r3, [pc, #60]	; (8000bbc <HAL_UART_MspInit+0x58>)
 8000b80:	0289      	lsls	r1, r1, #10
 8000b82:	6bda      	ldr	r2, [r3, #60]	; 0x3c
 8000b84:	20a0      	movs	r0, #160	; 0xa0
 8000b86:	430a      	orrs	r2, r1
 8000b88:	63da      	str	r2, [r3, #60]	; 0x3c
 8000b8a:	6bda      	ldr	r2, [r3, #60]	; 0x3c
 8000b8c:	05c0      	lsls	r0, r0, #23
 8000b8e:	400a      	ands	r2, r1
 8000b90:	9201      	str	r2, [sp, #4]
 8000b92:	9a01      	ldr	r2, [sp, #4]
 8000b94:	2201      	movs	r2, #1
 8000b96:	6b59      	ldr	r1, [r3, #52]	; 0x34
 8000b98:	4311      	orrs	r1, r2
 8000b9a:	6359      	str	r1, [r3, #52]	; 0x34
 8000b9c:	6b5b      	ldr	r3, [r3, #52]	; 0x34
 8000b9e:	a903      	add	r1, sp, #12
 8000ba0:	4013      	ands	r3, r2
 8000ba2:	9302      	str	r3, [sp, #8]
 8000ba4:	9b02      	ldr	r3, [sp, #8]
 8000ba6:	230c      	movs	r3, #12
 8000ba8:	9303      	str	r3, [sp, #12]
 8000baa:	3b0a      	subs	r3, #10
 8000bac:	9304      	str	r3, [sp, #16]
 8000bae:	9207      	str	r2, [sp, #28]
 8000bb0:	f000 fcc8 	bl	8001544 <HAL_GPIO_Init>
 8000bb4:	b008      	add	sp, #32
 8000bb6:	bd10      	pop	{r4, pc}
 8000bb8:	40004400 	.word	0x40004400
 8000bbc:	40021000 	.word	0x40021000

08000bc0 <NMI_Handler>:
 8000bc0:	e7fe      	b.n	8000bc0 <NMI_Handler>

08000bc2 <HardFault_Handler>:
 8000bc2:	e7fe      	b.n	8000bc2 <HardFault_Handler>

08000bc4 <SVC_Handler>:
 8000bc4:	4770      	bx	lr

08000bc6 <PendSV_Handler>:
 8000bc6:	4770      	bx	lr

08000bc8 <SysTick_Handler>:
 8000bc8:	b510      	push	{r4, lr}
 8000bca:	f000 f8a5 	bl	8000d18 <HAL_IncTick>
 8000bce:	bd10      	pop	{r4, pc}

08000bd0 <EXTI4_15_IRQHandler>:
 8000bd0:	b510      	push	{r4, lr}
 8000bd2:	2040      	movs	r0, #64	; 0x40
 8000bd4:	f000 fd7c 	bl	80016d0 <HAL_GPIO_EXTI_IRQHandler>
 8000bd8:	2080      	movs	r0, #128	; 0x80
 8000bda:	0180      	lsls	r0, r0, #6
 8000bdc:	f000 fd78 	bl	80016d0 <HAL_GPIO_EXTI_IRQHandler>
 8000be0:	2080      	movs	r0, #128	; 0x80
 8000be2:	0200      	lsls	r0, r0, #8
 8000be4:	f000 fd74 	bl	80016d0 <HAL_GPIO_EXTI_IRQHandler>
 8000be8:	bd10      	pop	{r4, pc}
	...

08000bec <TIM3_IRQHandler>:
 8000bec:	b510      	push	{r4, lr}
 8000bee:	4802      	ldr	r0, [pc, #8]	; (8000bf8 <TIM3_IRQHandler+0xc>)
 8000bf0:	f001 f984 	bl	8001efc <HAL_TIM_IRQHandler>
 8000bf4:	bd10      	pop	{r4, pc}
 8000bf6:	46c0      	nop			; (mov r8, r8)
 8000bf8:	20000168 	.word	0x20000168

08000bfc <TIM16_IRQHandler>:
 8000bfc:	b510      	push	{r4, lr}
 8000bfe:	4802      	ldr	r0, [pc, #8]	; (8000c08 <TIM16_IRQHandler+0xc>)
 8000c00:	f001 f97c 	bl	8001efc <HAL_TIM_IRQHandler>
 8000c04:	bd10      	pop	{r4, pc}
 8000c06:	46c0      	nop			; (mov r8, r8)
 8000c08:	2000011c 	.word	0x2000011c

08000c0c <_sbrk>:
 8000c0c:	490b      	ldr	r1, [pc, #44]	; (8000c3c <_sbrk+0x30>)
 8000c0e:	4a0c      	ldr	r2, [pc, #48]	; (8000c40 <_sbrk+0x34>)
 8000c10:	0003      	movs	r3, r0
 8000c12:	1a52      	subs	r2, r2, r1
 8000c14:	490b      	ldr	r1, [pc, #44]	; (8000c44 <_sbrk+0x38>)
 8000c16:	b510      	push	{r4, lr}
 8000c18:	6808      	ldr	r0, [r1, #0]
 8000c1a:	2800      	cmp	r0, #0
 8000c1c:	d101      	bne.n	8000c22 <_sbrk+0x16>
 8000c1e:	480a      	ldr	r0, [pc, #40]	; (8000c48 <_sbrk+0x3c>)
 8000c20:	6008      	str	r0, [r1, #0]
 8000c22:	6808      	ldr	r0, [r1, #0]
 8000c24:	18c3      	adds	r3, r0, r3
 8000c26:	4293      	cmp	r3, r2
 8000c28:	d906      	bls.n	8000c38 <_sbrk+0x2c>
 8000c2a:	f001 ff55 	bl	8002ad8 <__errno>
 8000c2e:	230c      	movs	r3, #12
 8000c30:	6003      	str	r3, [r0, #0]
 8000c32:	2001      	movs	r0, #1
 8000c34:	4240      	negs	r0, r0
 8000c36:	bd10      	pop	{r4, pc}
 8000c38:	600b      	str	r3, [r1, #0]
 8000c3a:	e7fc      	b.n	8000c36 <_sbrk+0x2a>
 8000c3c:	00000400 	.word	0x00000400
 8000c40:	20003000 	.word	0x20003000
 8000c44:	20000248 	.word	0x20000248
 8000c48:	20000398 	.word	0x20000398

08000c4c <SystemInit>:
 8000c4c:	2280      	movs	r2, #128	; 0x80
 8000c4e:	4b02      	ldr	r3, [pc, #8]	; (8000c58 <SystemInit+0xc>)
 8000c50:	0512      	lsls	r2, r2, #20
 8000c52:	609a      	str	r2, [r3, #8]
 8000c54:	4770      	bx	lr
 8000c56:	46c0      	nop			; (mov r8, r8)
 8000c58:	e000ed00 	.word	0xe000ed00

08000c5c <Reset_Handler>:
 8000c5c:	480d      	ldr	r0, [pc, #52]	; (8000c94 <LoopForever+0x2>)
 8000c5e:	4685      	mov	sp, r0
 8000c60:	f7ff fff4 	bl	8000c4c <SystemInit>
 8000c64:	2100      	movs	r1, #0
 8000c66:	e003      	b.n	8000c70 <LoopCopyDataInit>

08000c68 <CopyDataInit>:
 8000c68:	4b0b      	ldr	r3, [pc, #44]	; (8000c98 <LoopForever+0x6>)
 8000c6a:	585b      	ldr	r3, [r3, r1]
 8000c6c:	5043      	str	r3, [r0, r1]
 8000c6e:	3104      	adds	r1, #4

08000c70 <LoopCopyDataInit>:
 8000c70:	480a      	ldr	r0, [pc, #40]	; (8000c9c <LoopForever+0xa>)
 8000c72:	4b0b      	ldr	r3, [pc, #44]	; (8000ca0 <LoopForever+0xe>)
 8000c74:	1842      	adds	r2, r0, r1
 8000c76:	429a      	cmp	r2, r3
 8000c78:	d3f6      	bcc.n	8000c68 <CopyDataInit>
 8000c7a:	4a0a      	ldr	r2, [pc, #40]	; (8000ca4 <LoopForever+0x12>)
 8000c7c:	e002      	b.n	8000c84 <LoopFillZerobss>

08000c7e <FillZerobss>:
 8000c7e:	2300      	movs	r3, #0
 8000c80:	6013      	str	r3, [r2, #0]
 8000c82:	3204      	adds	r2, #4

08000c84 <LoopFillZerobss>:
 8000c84:	4b08      	ldr	r3, [pc, #32]	; (8000ca8 <LoopForever+0x16>)
 8000c86:	429a      	cmp	r2, r3
 8000c88:	d3f9      	bcc.n	8000c7e <FillZerobss>
 8000c8a:	f001 ff2b 	bl	8002ae4 <__libc_init_array>
 8000c8e:	f7ff fd49 	bl	8000724 <main>

08000c92 <LoopForever>:
 8000c92:	e7fe      	b.n	8000c92 <LoopForever>
 8000c94:	20003000 	.word	0x20003000
 8000c98:	08003510 	.word	0x08003510
 8000c9c:	20000000 	.word	0x20000000
 8000ca0:	2000005c 	.word	0x2000005c
 8000ca4:	2000005c 	.word	0x2000005c
 8000ca8:	20000398 	.word	0x20000398

08000cac <ADC1_IRQHandler>:
 8000cac:	e7fe      	b.n	8000cac <ADC1_IRQHandler>
	...

08000cb0 <HAL_InitTick>:
 8000cb0:	b570      	push	{r4, r5, r6, lr}
 8000cb2:	4b10      	ldr	r3, [pc, #64]	; (8000cf4 <HAL_InitTick+0x44>)
 8000cb4:	0005      	movs	r5, r0
 8000cb6:	7819      	ldrb	r1, [r3, #0]
 8000cb8:	2900      	cmp	r1, #0
 8000cba:	d101      	bne.n	8000cc0 <HAL_InitTick+0x10>
 8000cbc:	2001      	movs	r0, #1
 8000cbe:	bd70      	pop	{r4, r5, r6, pc}
 8000cc0:	20fa      	movs	r0, #250	; 0xfa
 8000cc2:	0080      	lsls	r0, r0, #2
 8000cc4:	f7ff fa46 	bl	8000154 <__udivsi3>
 8000cc8:	4c0b      	ldr	r4, [pc, #44]	; (8000cf8 <HAL_InitTick+0x48>)
 8000cca:	0001      	movs	r1, r0
 8000ccc:	6820      	ldr	r0, [r4, #0]
 8000cce:	f7ff fa41 	bl	8000154 <__udivsi3>
 8000cd2:	f000 fc1d 	bl	8001510 <HAL_SYSTICK_Config>
 8000cd6:	1e04      	subs	r4, r0, #0
 8000cd8:	d1f0      	bne.n	8000cbc <HAL_InitTick+0xc>
 8000cda:	2d03      	cmp	r5, #3
 8000cdc:	d8ee      	bhi.n	8000cbc <HAL_InitTick+0xc>
 8000cde:	0002      	movs	r2, r0
 8000ce0:	2001      	movs	r0, #1
 8000ce2:	0029      	movs	r1, r5
 8000ce4:	4240      	negs	r0, r0
 8000ce6:	f000 fbdd 	bl	80014a4 <HAL_NVIC_SetPriority>
 8000cea:	4b04      	ldr	r3, [pc, #16]	; (8000cfc <HAL_InitTick+0x4c>)
 8000cec:	0020      	movs	r0, r4
 8000cee:	601d      	str	r5, [r3, #0]
 8000cf0:	e7e5      	b.n	8000cbe <HAL_InitTick+0xe>
 8000cf2:	46c0      	nop			; (mov r8, r8)
 8000cf4:	20000004 	.word	0x20000004
 8000cf8:	20000000 	.word	0x20000000
 8000cfc:	20000008 	.word	0x20000008

08000d00 <HAL_Init>:
 8000d00:	b510      	push	{r4, lr}
 8000d02:	2003      	movs	r0, #3
 8000d04:	f7ff ffd4 	bl	8000cb0 <HAL_InitTick>
 8000d08:	1e04      	subs	r4, r0, #0
 8000d0a:	d103      	bne.n	8000d14 <HAL_Init+0x14>
 8000d0c:	f7ff fe72 	bl	80009f4 <HAL_MspInit>
 8000d10:	0020      	movs	r0, r4
 8000d12:	bd10      	pop	{r4, pc}
 8000d14:	2401      	movs	r4, #1
 8000d16:	e7fb      	b.n	8000d10 <HAL_Init+0x10>

08000d18 <HAL_IncTick>:
 8000d18:	4a03      	ldr	r2, [pc, #12]	; (8000d28 <HAL_IncTick+0x10>)
 8000d1a:	4b04      	ldr	r3, [pc, #16]	; (8000d2c <HAL_IncTick+0x14>)
 8000d1c:	6811      	ldr	r1, [r2, #0]
 8000d1e:	781b      	ldrb	r3, [r3, #0]
 8000d20:	185b      	adds	r3, r3, r1
 8000d22:	6013      	str	r3, [r2, #0]
 8000d24:	4770      	bx	lr
 8000d26:	46c0      	nop			; (mov r8, r8)
 8000d28:	2000024c 	.word	0x2000024c
 8000d2c:	20000004 	.word	0x20000004

08000d30 <HAL_GetTick>:
 8000d30:	4b01      	ldr	r3, [pc, #4]	; (8000d38 <HAL_GetTick+0x8>)
 8000d32:	6818      	ldr	r0, [r3, #0]
 8000d34:	4770      	bx	lr
 8000d36:	46c0      	nop			; (mov r8, r8)
 8000d38:	2000024c 	.word	0x2000024c

08000d3c <HAL_Delay>:
 8000d3c:	b570      	push	{r4, r5, r6, lr}
 8000d3e:	0004      	movs	r4, r0
 8000d40:	f7ff fff6 	bl	8000d30 <HAL_GetTick>
 8000d44:	0005      	movs	r5, r0
 8000d46:	1c63      	adds	r3, r4, #1
 8000d48:	d002      	beq.n	8000d50 <HAL_Delay+0x14>
 8000d4a:	4b04      	ldr	r3, [pc, #16]	; (8000d5c <HAL_Delay+0x20>)
 8000d4c:	781b      	ldrb	r3, [r3, #0]
 8000d4e:	18e4      	adds	r4, r4, r3
 8000d50:	f7ff ffee 	bl	8000d30 <HAL_GetTick>
 8000d54:	1b40      	subs	r0, r0, r5
 8000d56:	42a0      	cmp	r0, r4
 8000d58:	d3fa      	bcc.n	8000d50 <HAL_Delay+0x14>
 8000d5a:	bd70      	pop	{r4, r5, r6, pc}
 8000d5c:	20000004 	.word	0x20000004

08000d60 <HAL_SuspendTick>:
 8000d60:	2102      	movs	r1, #2
 8000d62:	4a02      	ldr	r2, [pc, #8]	; (8000d6c <HAL_SuspendTick+0xc>)
 8000d64:	6813      	ldr	r3, [r2, #0]
 8000d66:	438b      	bics	r3, r1
 8000d68:	6013      	str	r3, [r2, #0]
 8000d6a:	4770      	bx	lr
 8000d6c:	e000e010 	.word	0xe000e010

08000d70 <HAL_ResumeTick>:
 8000d70:	2302      	movs	r3, #2
 8000d72:	4a02      	ldr	r2, [pc, #8]	; (8000d7c <HAL_ResumeTick+0xc>)
 8000d74:	6811      	ldr	r1, [r2, #0]
 8000d76:	430b      	orrs	r3, r1
 8000d78:	6013      	str	r3, [r2, #0]
 8000d7a:	4770      	bx	lr
 8000d7c:	e000e010 	.word	0xe000e010

08000d80 <LL_ADC_REG_IsConversionOngoing>:
 8000d80:	6880      	ldr	r0, [r0, #8]
 8000d82:	0740      	lsls	r0, r0, #29
 8000d84:	0fc0      	lsrs	r0, r0, #31
 8000d86:	4770      	bx	lr

08000d88 <HAL_ADC_Init>:
 8000d88:	2300      	movs	r3, #0
 8000d8a:	b5f0      	push	{r4, r5, r6, r7, lr}
 8000d8c:	b085      	sub	sp, #20
 8000d8e:	0004      	movs	r4, r0
 8000d90:	2601      	movs	r6, #1
 8000d92:	9303      	str	r3, [sp, #12]
 8000d94:	4298      	cmp	r0, r3
 8000d96:	d100      	bne.n	8000d9a <HAL_ADC_Init+0x12>
 8000d98:	e0b4      	b.n	8000f04 <HAL_ADC_Init+0x17c>
 8000d9a:	6d85      	ldr	r5, [r0, #88]	; 0x58
 8000d9c:	429d      	cmp	r5, r3
 8000d9e:	d105      	bne.n	8000dac <HAL_ADC_Init+0x24>
 8000da0:	f7ff fe40 	bl	8000a24 <HAL_ADC_MspInit>
 8000da4:	0023      	movs	r3, r4
 8000da6:	3354      	adds	r3, #84	; 0x54
 8000da8:	65e5      	str	r5, [r4, #92]	; 0x5c
 8000daa:	701d      	strb	r5, [r3, #0]
 8000dac:	2380      	movs	r3, #128	; 0x80
 8000dae:	6825      	ldr	r5, [r4, #0]
 8000db0:	055b      	lsls	r3, r3, #21
 8000db2:	68aa      	ldr	r2, [r5, #8]
 8000db4:	421a      	tst	r2, r3
 8000db6:	d100      	bne.n	8000dba <HAL_ADC_Init+0x32>
 8000db8:	e0a7      	b.n	8000f0a <HAL_ADC_Init+0x182>
 8000dba:	68ab      	ldr	r3, [r5, #8]
 8000dbc:	2600      	movs	r6, #0
 8000dbe:	00db      	lsls	r3, r3, #3
 8000dc0:	d407      	bmi.n	8000dd2 <HAL_ADC_Init+0x4a>
 8000dc2:	2310      	movs	r3, #16
 8000dc4:	2601      	movs	r6, #1
 8000dc6:	6da2      	ldr	r2, [r4, #88]	; 0x58
 8000dc8:	4313      	orrs	r3, r2
 8000dca:	65a3      	str	r3, [r4, #88]	; 0x58
 8000dcc:	6de3      	ldr	r3, [r4, #92]	; 0x5c
 8000dce:	4333      	orrs	r3, r6
 8000dd0:	65e3      	str	r3, [r4, #92]	; 0x5c
 8000dd2:	0028      	movs	r0, r5
 8000dd4:	f7ff ffd4 	bl	8000d80 <LL_ADC_REG_IsConversionOngoing>
 8000dd8:	2210      	movs	r2, #16
 8000dda:	6da3      	ldr	r3, [r4, #88]	; 0x58
 8000ddc:	4013      	ands	r3, r2
 8000dde:	4303      	orrs	r3, r0
 8000de0:	d000      	beq.n	8000de4 <HAL_ADC_Init+0x5c>
 8000de2:	e0cc      	b.n	8000f7e <HAL_ADC_Init+0x1f6>
 8000de4:	6da2      	ldr	r2, [r4, #88]	; 0x58
 8000de6:	4b68      	ldr	r3, [pc, #416]	; (8000f88 <HAL_ADC_Init+0x200>)
 8000de8:	401a      	ands	r2, r3
 8000dea:	3306      	adds	r3, #6
 8000dec:	33ff      	adds	r3, #255	; 0xff
 8000dee:	4313      	orrs	r3, r2
 8000df0:	65a3      	str	r3, [r4, #88]	; 0x58
 8000df2:	6922      	ldr	r2, [r4, #16]
 8000df4:	68ab      	ldr	r3, [r5, #8]
 8000df6:	9201      	str	r2, [sp, #4]
 8000df8:	07db      	lsls	r3, r3, #31
 8000dfa:	d462      	bmi.n	8000ec2 <HAL_ADC_Init+0x13a>
 8000dfc:	6b27      	ldr	r7, [r4, #48]	; 0x30
 8000dfe:	68e1      	ldr	r1, [r4, #12]
 8000e00:	1e7b      	subs	r3, r7, #1
 8000e02:	419f      	sbcs	r7, r3
 8000e04:	68a3      	ldr	r3, [r4, #8]
 8000e06:	7ea2      	ldrb	r2, [r4, #26]
 8000e08:	430b      	orrs	r3, r1
 8000e0a:	7e21      	ldrb	r1, [r4, #24]
 8000e0c:	033f      	lsls	r7, r7, #12
 8000e0e:	0389      	lsls	r1, r1, #14
 8000e10:	430b      	orrs	r3, r1
 8000e12:	7e61      	ldrb	r1, [r4, #25]
 8000e14:	03c9      	lsls	r1, r1, #15
 8000e16:	430b      	orrs	r3, r1
 8000e18:	0351      	lsls	r1, r2, #13
 8000e1a:	430b      	orrs	r3, r1
 8000e1c:	469c      	mov	ip, r3
 8000e1e:	9b01      	ldr	r3, [sp, #4]
 8000e20:	2b00      	cmp	r3, #0
 8000e22:	db00      	blt.n	8000e26 <HAL_ADC_Init+0x9e>
 8000e24:	e085      	b.n	8000f32 <HAL_ADC_Init+0x1aa>
 8000e26:	0059      	lsls	r1, r3, #1
 8000e28:	0849      	lsrs	r1, r1, #1
 8000e2a:	0023      	movs	r3, r4
 8000e2c:	4660      	mov	r0, ip
 8000e2e:	332c      	adds	r3, #44	; 0x2c
 8000e30:	781b      	ldrb	r3, [r3, #0]
 8000e32:	005b      	lsls	r3, r3, #1
 8000e34:	4303      	orrs	r3, r0
 8000e36:	433b      	orrs	r3, r7
 8000e38:	430b      	orrs	r3, r1
 8000e3a:	1c61      	adds	r1, r4, #1
 8000e3c:	7fc9      	ldrb	r1, [r1, #31]
 8000e3e:	2901      	cmp	r1, #1
 8000e40:	d105      	bne.n	8000e4e <HAL_ADC_Init+0xc6>
 8000e42:	2a00      	cmp	r2, #0
 8000e44:	d000      	beq.n	8000e48 <HAL_ADC_Init+0xc0>
 8000e46:	e077      	b.n	8000f38 <HAL_ADC_Init+0x1b0>
 8000e48:	2280      	movs	r2, #128	; 0x80
 8000e4a:	0252      	lsls	r2, r2, #9
 8000e4c:	4313      	orrs	r3, r2
 8000e4e:	6a62      	ldr	r2, [r4, #36]	; 0x24
 8000e50:	2a00      	cmp	r2, #0
 8000e52:	d005      	beq.n	8000e60 <HAL_ADC_Init+0xd8>
 8000e54:	21e0      	movs	r1, #224	; 0xe0
 8000e56:	0049      	lsls	r1, r1, #1
 8000e58:	400a      	ands	r2, r1
 8000e5a:	6aa1      	ldr	r1, [r4, #40]	; 0x28
 8000e5c:	430a      	orrs	r2, r1
 8000e5e:	4313      	orrs	r3, r2
 8000e60:	68ea      	ldr	r2, [r5, #12]
 8000e62:	494a      	ldr	r1, [pc, #296]	; (8000f8c <HAL_ADC_Init+0x204>)
 8000e64:	400a      	ands	r2, r1
 8000e66:	4313      	orrs	r3, r2
 8000e68:	60eb      	str	r3, [r5, #12]
 8000e6a:	0023      	movs	r3, r4
 8000e6c:	6862      	ldr	r2, [r4, #4]
 8000e6e:	333c      	adds	r3, #60	; 0x3c
 8000e70:	6ce1      	ldr	r1, [r4, #76]	; 0x4c
 8000e72:	781b      	ldrb	r3, [r3, #0]
 8000e74:	0f97      	lsrs	r7, r2, #30
 8000e76:	07bf      	lsls	r7, r7, #30
 8000e78:	469c      	mov	ip, r3
 8000e7a:	4339      	orrs	r1, r7
 8000e7c:	2b01      	cmp	r3, #1
 8000e7e:	d108      	bne.n	8000e92 <HAL_ADC_Init+0x10a>
 8000e80:	6c23      	ldr	r3, [r4, #64]	; 0x40
 8000e82:	6c60      	ldr	r0, [r4, #68]	; 0x44
 8000e84:	4303      	orrs	r3, r0
 8000e86:	430b      	orrs	r3, r1
 8000e88:	6ca1      	ldr	r1, [r4, #72]	; 0x48
 8000e8a:	430b      	orrs	r3, r1
 8000e8c:	4661      	mov	r1, ip
 8000e8e:	433b      	orrs	r3, r7
 8000e90:	4319      	orrs	r1, r3
 8000e92:	692b      	ldr	r3, [r5, #16]
 8000e94:	4f3e      	ldr	r7, [pc, #248]	; (8000f90 <HAL_ADC_Init+0x208>)
 8000e96:	403b      	ands	r3, r7
 8000e98:	430b      	orrs	r3, r1
 8000e9a:	2180      	movs	r1, #128	; 0x80
 8000e9c:	612b      	str	r3, [r5, #16]
 8000e9e:	0053      	lsls	r3, r2, #1
 8000ea0:	085b      	lsrs	r3, r3, #1
 8000ea2:	05c9      	lsls	r1, r1, #23
 8000ea4:	428b      	cmp	r3, r1
 8000ea6:	d00c      	beq.n	8000ec2 <HAL_ADC_Init+0x13a>
 8000ea8:	2380      	movs	r3, #128	; 0x80
 8000eaa:	061b      	lsls	r3, r3, #24
 8000eac:	429a      	cmp	r2, r3
 8000eae:	d008      	beq.n	8000ec2 <HAL_ADC_Init+0x13a>
 8000eb0:	4938      	ldr	r1, [pc, #224]	; (8000f94 <HAL_ADC_Init+0x20c>)
 8000eb2:	4f39      	ldr	r7, [pc, #228]	; (8000f98 <HAL_ADC_Init+0x210>)
 8000eb4:	680b      	ldr	r3, [r1, #0]
 8000eb6:	403b      	ands	r3, r7
 8000eb8:	27f0      	movs	r7, #240	; 0xf0
 8000eba:	03bf      	lsls	r7, r7, #14
 8000ebc:	403a      	ands	r2, r7
 8000ebe:	4313      	orrs	r3, r2
 8000ec0:	600b      	str	r3, [r1, #0]
 8000ec2:	2107      	movs	r1, #7
 8000ec4:	2770      	movs	r7, #112	; 0x70
 8000ec6:	696b      	ldr	r3, [r5, #20]
 8000ec8:	6b62      	ldr	r2, [r4, #52]	; 0x34
 8000eca:	438b      	bics	r3, r1
 8000ecc:	4313      	orrs	r3, r2
 8000ece:	616b      	str	r3, [r5, #20]
 8000ed0:	6969      	ldr	r1, [r5, #20]
 8000ed2:	6ba3      	ldr	r3, [r4, #56]	; 0x38
 8000ed4:	43b9      	bics	r1, r7
 8000ed6:	011b      	lsls	r3, r3, #4
 8000ed8:	430b      	orrs	r3, r1
 8000eda:	616b      	str	r3, [r5, #20]
 8000edc:	9b01      	ldr	r3, [sp, #4]
 8000ede:	2b00      	cmp	r3, #0
 8000ee0:	d132      	bne.n	8000f48 <HAL_ADC_Init+0x1c0>
 8000ee2:	6aa9      	ldr	r1, [r5, #40]	; 0x28
 8000ee4:	3b10      	subs	r3, #16
 8000ee6:	430b      	orrs	r3, r1
 8000ee8:	62ab      	str	r3, [r5, #40]	; 0x28
 8000eea:	2107      	movs	r1, #7
 8000eec:	696b      	ldr	r3, [r5, #20]
 8000eee:	400b      	ands	r3, r1
 8000ef0:	429a      	cmp	r2, r3
 8000ef2:	d139      	bne.n	8000f68 <HAL_ADC_Init+0x1e0>
 8000ef4:	2300      	movs	r3, #0
 8000ef6:	65e3      	str	r3, [r4, #92]	; 0x5c
 8000ef8:	6da2      	ldr	r2, [r4, #88]	; 0x58
 8000efa:	3303      	adds	r3, #3
 8000efc:	439a      	bics	r2, r3
 8000efe:	3b02      	subs	r3, #2
 8000f00:	4313      	orrs	r3, r2
 8000f02:	65a3      	str	r3, [r4, #88]	; 0x58
 8000f04:	0030      	movs	r0, r6
 8000f06:	b005      	add	sp, #20
 8000f08:	bdf0      	pop	{r4, r5, r6, r7, pc}
 8000f0a:	68aa      	ldr	r2, [r5, #8]
 8000f0c:	4923      	ldr	r1, [pc, #140]	; (8000f9c <HAL_ADC_Init+0x214>)
 8000f0e:	400a      	ands	r2, r1
 8000f10:	4313      	orrs	r3, r2
 8000f12:	60ab      	str	r3, [r5, #8]
 8000f14:	4b22      	ldr	r3, [pc, #136]	; (8000fa0 <HAL_ADC_Init+0x218>)
 8000f16:	4923      	ldr	r1, [pc, #140]	; (8000fa4 <HAL_ADC_Init+0x21c>)
 8000f18:	6818      	ldr	r0, [r3, #0]
 8000f1a:	f7ff f91b 	bl	8000154 <__udivsi3>
 8000f1e:	0040      	lsls	r0, r0, #1
 8000f20:	9003      	str	r0, [sp, #12]
 8000f22:	9b03      	ldr	r3, [sp, #12]
 8000f24:	2b00      	cmp	r3, #0
 8000f26:	d100      	bne.n	8000f2a <HAL_ADC_Init+0x1a2>
 8000f28:	e747      	b.n	8000dba <HAL_ADC_Init+0x32>
 8000f2a:	9b03      	ldr	r3, [sp, #12]
 8000f2c:	3b01      	subs	r3, #1
 8000f2e:	9303      	str	r3, [sp, #12]
 8000f30:	e7f7      	b.n	8000f22 <HAL_ADC_Init+0x19a>
 8000f32:	2180      	movs	r1, #128	; 0x80
 8000f34:	0389      	lsls	r1, r1, #14
 8000f36:	e778      	b.n	8000e2a <HAL_ADC_Init+0xa2>
 8000f38:	2220      	movs	r2, #32
 8000f3a:	6da7      	ldr	r7, [r4, #88]	; 0x58
 8000f3c:	433a      	orrs	r2, r7
 8000f3e:	65a2      	str	r2, [r4, #88]	; 0x58
 8000f40:	6de2      	ldr	r2, [r4, #92]	; 0x5c
 8000f42:	4311      	orrs	r1, r2
 8000f44:	65e1      	str	r1, [r4, #92]	; 0x5c
 8000f46:	e782      	b.n	8000e4e <HAL_ADC_Init+0xc6>
 8000f48:	2380      	movs	r3, #128	; 0x80
 8000f4a:	9901      	ldr	r1, [sp, #4]
 8000f4c:	039b      	lsls	r3, r3, #14
 8000f4e:	4299      	cmp	r1, r3
 8000f50:	d1cb      	bne.n	8000eea <HAL_ADC_Init+0x162>
 8000f52:	211c      	movs	r1, #28
 8000f54:	6aab      	ldr	r3, [r5, #40]	; 0x28
 8000f56:	69e3      	ldr	r3, [r4, #28]
 8000f58:	3b01      	subs	r3, #1
 8000f5a:	009b      	lsls	r3, r3, #2
 8000f5c:	400b      	ands	r3, r1
 8000f5e:	392c      	subs	r1, #44	; 0x2c
 8000f60:	4099      	lsls	r1, r3
 8000f62:	000b      	movs	r3, r1
 8000f64:	6e21      	ldr	r1, [r4, #96]	; 0x60
 8000f66:	e7be      	b.n	8000ee6 <HAL_ADC_Init+0x15e>
 8000f68:	2312      	movs	r3, #18
 8000f6a:	2601      	movs	r6, #1
 8000f6c:	6da2      	ldr	r2, [r4, #88]	; 0x58
 8000f6e:	439a      	bics	r2, r3
 8000f70:	3b02      	subs	r3, #2
 8000f72:	4313      	orrs	r3, r2
 8000f74:	65a3      	str	r3, [r4, #88]	; 0x58
 8000f76:	6de3      	ldr	r3, [r4, #92]	; 0x5c
 8000f78:	4333      	orrs	r3, r6
 8000f7a:	65e3      	str	r3, [r4, #92]	; 0x5c
 8000f7c:	e7c2      	b.n	8000f04 <HAL_ADC_Init+0x17c>
 8000f7e:	6da3      	ldr	r3, [r4, #88]	; 0x58
 8000f80:	2601      	movs	r6, #1
 8000f82:	431a      	orrs	r2, r3
 8000f84:	65a2      	str	r2, [r4, #88]	; 0x58
 8000f86:	e7bd      	b.n	8000f04 <HAL_ADC_Init+0x17c>
 8000f88:	fffffefd 	.word	0xfffffefd
 8000f8c:	ffde0201 	.word	0xffde0201
 8000f90:	1ffffc02 	.word	0x1ffffc02
 8000f94:	40012708 	.word	0x40012708
 8000f98:	ffc3ffff 	.word	0xffc3ffff
 8000f9c:	6fffffe8 	.word	0x6fffffe8
 8000fa0:	20000000 	.word	0x20000000
 8000fa4:	00030d40 	.word	0x00030d40

08000fa8 <HAL_ADC_PollForConversion>:
 8000fa8:	b5f7      	push	{r0, r1, r2, r4, r5, r6, r7, lr}
 8000faa:	6947      	ldr	r7, [r0, #20]
 8000fac:	0004      	movs	r4, r0
 8000fae:	000e      	movs	r6, r1
 8000fb0:	2f08      	cmp	r7, #8
 8000fb2:	d00a      	beq.n	8000fca <HAL_ADC_PollForConversion+0x22>
 8000fb4:	6803      	ldr	r3, [r0, #0]
 8000fb6:	2001      	movs	r0, #1
 8000fb8:	68db      	ldr	r3, [r3, #12]
 8000fba:	2704      	movs	r7, #4
 8000fbc:	4203      	tst	r3, r0
 8000fbe:	d004      	beq.n	8000fca <HAL_ADC_PollForConversion+0x22>
 8000fc0:	2320      	movs	r3, #32
 8000fc2:	6da2      	ldr	r2, [r4, #88]	; 0x58
 8000fc4:	4313      	orrs	r3, r2
 8000fc6:	65a3      	str	r3, [r4, #88]	; 0x58
 8000fc8:	bdfe      	pop	{r1, r2, r3, r4, r5, r6, r7, pc}
 8000fca:	f7ff feb1 	bl	8000d30 <HAL_GetTick>
 8000fce:	9001      	str	r0, [sp, #4]
 8000fd0:	6825      	ldr	r5, [r4, #0]
 8000fd2:	682b      	ldr	r3, [r5, #0]
 8000fd4:	421f      	tst	r7, r3
 8000fd6:	d025      	beq.n	8001024 <HAL_ADC_PollForConversion+0x7c>
 8000fd8:	2380      	movs	r3, #128	; 0x80
 8000fda:	6da2      	ldr	r2, [r4, #88]	; 0x58
 8000fdc:	009b      	lsls	r3, r3, #2
 8000fde:	4313      	orrs	r3, r2
 8000fe0:	65a3      	str	r3, [r4, #88]	; 0x58
 8000fe2:	23c0      	movs	r3, #192	; 0xc0
 8000fe4:	68ea      	ldr	r2, [r5, #12]
 8000fe6:	011b      	lsls	r3, r3, #4
 8000fe8:	421a      	tst	r2, r3
 8000fea:	d115      	bne.n	8001018 <HAL_ADC_PollForConversion+0x70>
 8000fec:	7ea3      	ldrb	r3, [r4, #26]
 8000fee:	2b00      	cmp	r3, #0
 8000ff0:	d112      	bne.n	8001018 <HAL_ADC_PollForConversion+0x70>
 8000ff2:	682b      	ldr	r3, [r5, #0]
 8000ff4:	071b      	lsls	r3, r3, #28
 8000ff6:	d50f      	bpl.n	8001018 <HAL_ADC_PollForConversion+0x70>
 8000ff8:	0028      	movs	r0, r5
 8000ffa:	f7ff fec1 	bl	8000d80 <LL_ADC_REG_IsConversionOngoing>
 8000ffe:	2800      	cmp	r0, #0
 8001000:	d123      	bne.n	800104a <HAL_ADC_PollForConversion+0xa2>
 8001002:	220c      	movs	r2, #12
 8001004:	686b      	ldr	r3, [r5, #4]
 8001006:	4393      	bics	r3, r2
 8001008:	606b      	str	r3, [r5, #4]
 800100a:	6da2      	ldr	r2, [r4, #88]	; 0x58
 800100c:	4b14      	ldr	r3, [pc, #80]	; (8001060 <HAL_ADC_PollForConversion+0xb8>)
 800100e:	401a      	ands	r2, r3
 8001010:	3304      	adds	r3, #4
 8001012:	33ff      	adds	r3, #255	; 0xff
 8001014:	4313      	orrs	r3, r2
 8001016:	65a3      	str	r3, [r4, #88]	; 0x58
 8001018:	7e20      	ldrb	r0, [r4, #24]
 800101a:	2800      	cmp	r0, #0
 800101c:	d11e      	bne.n	800105c <HAL_ADC_PollForConversion+0xb4>
 800101e:	230c      	movs	r3, #12
 8001020:	602b      	str	r3, [r5, #0]
 8001022:	e7d1      	b.n	8000fc8 <HAL_ADC_PollForConversion+0x20>
 8001024:	1c73      	adds	r3, r6, #1
 8001026:	d0d4      	beq.n	8000fd2 <HAL_ADC_PollForConversion+0x2a>
 8001028:	f7ff fe82 	bl	8000d30 <HAL_GetTick>
 800102c:	9b01      	ldr	r3, [sp, #4]
 800102e:	1ac0      	subs	r0, r0, r3
 8001030:	42b0      	cmp	r0, r6
 8001032:	d801      	bhi.n	8001038 <HAL_ADC_PollForConversion+0x90>
 8001034:	2e00      	cmp	r6, #0
 8001036:	d1cb      	bne.n	8000fd0 <HAL_ADC_PollForConversion+0x28>
 8001038:	2304      	movs	r3, #4
 800103a:	6da2      	ldr	r2, [r4, #88]	; 0x58
 800103c:	3454      	adds	r4, #84	; 0x54
 800103e:	4313      	orrs	r3, r2
 8001040:	6063      	str	r3, [r4, #4]
 8001042:	2300      	movs	r3, #0
 8001044:	2003      	movs	r0, #3
 8001046:	7023      	strb	r3, [r4, #0]
 8001048:	e7be      	b.n	8000fc8 <HAL_ADC_PollForConversion+0x20>
 800104a:	2320      	movs	r3, #32
 800104c:	6da2      	ldr	r2, [r4, #88]	; 0x58
 800104e:	4313      	orrs	r3, r2
 8001050:	65a3      	str	r3, [r4, #88]	; 0x58
 8001052:	2301      	movs	r3, #1
 8001054:	6de2      	ldr	r2, [r4, #92]	; 0x5c
 8001056:	4313      	orrs	r3, r2
 8001058:	65e3      	str	r3, [r4, #92]	; 0x5c
 800105a:	e7dd      	b.n	8001018 <HAL_ADC_PollForConversion+0x70>
 800105c:	2000      	movs	r0, #0
 800105e:	e7b3      	b.n	8000fc8 <HAL_ADC_PollForConversion+0x20>
 8001060:	fffffefe 	.word	0xfffffefe

08001064 <HAL_ADC_GetValue>:
 8001064:	6803      	ldr	r3, [r0, #0]
 8001066:	6c18      	ldr	r0, [r3, #64]	; 0x40
 8001068:	4770      	bx	lr
	...

0800106c <HAL_ADC_ConfigChannel>:
 800106c:	2300      	movs	r3, #0
 800106e:	b5f0      	push	{r4, r5, r6, r7, lr}
 8001070:	b085      	sub	sp, #20
 8001072:	9303      	str	r3, [sp, #12]
 8001074:	0003      	movs	r3, r0
 8001076:	9100      	str	r1, [sp, #0]
 8001078:	3354      	adds	r3, #84	; 0x54
 800107a:	781a      	ldrb	r2, [r3, #0]
 800107c:	0005      	movs	r5, r0
 800107e:	2002      	movs	r0, #2
 8001080:	2a01      	cmp	r2, #1
 8001082:	d100      	bne.n	8001086 <HAL_ADC_ConfigChannel+0x1a>
 8001084:	e0cc      	b.n	8001220 <HAL_ADC_ConfigChannel+0x1b4>
 8001086:	2201      	movs	r2, #1
 8001088:	692f      	ldr	r7, [r5, #16]
 800108a:	701a      	strb	r2, [r3, #0]
 800108c:	682e      	ldr	r6, [r5, #0]
 800108e:	0030      	movs	r0, r6
 8001090:	f7ff fe76 	bl	8000d80 <LL_ADC_REG_IsConversionOngoing>
 8001094:	2800      	cmp	r0, #0
 8001096:	d000      	beq.n	800109a <HAL_ADC_ConfigChannel+0x2e>
 8001098:	e0e9      	b.n	800126e <HAL_ADC_ConfigChannel+0x202>
 800109a:	9b00      	ldr	r3, [sp, #0]
 800109c:	2204      	movs	r2, #4
 800109e:	685b      	ldr	r3, [r3, #4]
 80010a0:	2180      	movs	r1, #128	; 0x80
 80010a2:	469c      	mov	ip, r3
 80010a4:	4397      	bics	r7, r2
 80010a6:	4662      	mov	r2, ip
 80010a8:	9b00      	ldr	r3, [sp, #0]
 80010aa:	0609      	lsls	r1, r1, #24
 80010ac:	681b      	ldr	r3, [r3, #0]
 80010ae:	2a02      	cmp	r2, #2
 80010b0:	d100      	bne.n	80010b4 <HAL_ADC_ConfigChannel+0x48>
 80010b2:	e0b7      	b.n	8001224 <HAL_ADC_ConfigChannel+0x1b8>
 80010b4:	025a      	lsls	r2, r3, #9
 80010b6:	0a52      	lsrs	r2, r2, #9
 80010b8:	428f      	cmp	r7, r1
 80010ba:	d110      	bne.n	80010de <HAL_ADC_ConfigChannel+0x72>
 80010bc:	6ab1      	ldr	r1, [r6, #40]	; 0x28
 80010be:	430a      	orrs	r2, r1
 80010c0:	62b2      	str	r2, [r6, #40]	; 0x28
 80010c2:	9a00      	ldr	r2, [sp, #0]
 80010c4:	6970      	ldr	r0, [r6, #20]
 80010c6:	6892      	ldr	r2, [r2, #8]
 80010c8:	0219      	lsls	r1, r3, #8
 80010ca:	4c6c      	ldr	r4, [pc, #432]	; (800127c <HAL_ADC_ConfigChannel+0x210>)
 80010cc:	400a      	ands	r2, r1
 80010ce:	4022      	ands	r2, r4
 80010d0:	4388      	bics	r0, r1
 80010d2:	4302      	orrs	r2, r0
 80010d4:	6172      	str	r2, [r6, #20]
 80010d6:	2b00      	cmp	r3, #0
 80010d8:	db6c      	blt.n	80011b4 <HAL_ADC_ConfigChannel+0x148>
 80010da:	2000      	movs	r0, #0
 80010dc:	e09d      	b.n	800121a <HAL_ADC_ConfigChannel+0x1ae>
 80010de:	211f      	movs	r1, #31
 80010e0:	4667      	mov	r7, ip
 80010e2:	400f      	ands	r7, r1
 80010e4:	3910      	subs	r1, #16
 80010e6:	40b9      	lsls	r1, r7
 80010e8:	43cc      	mvns	r4, r1
 80010ea:	9401      	str	r4, [sp, #4]
 80010ec:	6e2c      	ldr	r4, [r5, #96]	; 0x60
 80010ee:	438c      	bics	r4, r1
 80010f0:	0021      	movs	r1, r4
 80010f2:	2a00      	cmp	r2, #0
 80010f4:	d112      	bne.n	800111c <HAL_ADC_ConfigChannel+0xb0>
 80010f6:	0e98      	lsrs	r0, r3, #26
 80010f8:	321f      	adds	r2, #31
 80010fa:	4010      	ands	r0, r2
 80010fc:	40b8      	lsls	r0, r7
 80010fe:	4662      	mov	r2, ip
 8001100:	4308      	orrs	r0, r1
 8001102:	0892      	lsrs	r2, r2, #2
 8001104:	69e9      	ldr	r1, [r5, #28]
 8001106:	3201      	adds	r2, #1
 8001108:	6628      	str	r0, [r5, #96]	; 0x60
 800110a:	428a      	cmp	r2, r1
 800110c:	d8d9      	bhi.n	80010c2 <HAL_ADC_ConfigChannel+0x56>
 800110e:	6ab1      	ldr	r1, [r6, #40]	; 0x28
 8001110:	9801      	ldr	r0, [sp, #4]
 8001112:	009a      	lsls	r2, r3, #2
 8001114:	0f12      	lsrs	r2, r2, #28
 8001116:	40ba      	lsls	r2, r7
 8001118:	4001      	ands	r1, r0
 800111a:	e7d0      	b.n	80010be <HAL_ADC_ConfigChannel+0x52>
 800111c:	2201      	movs	r2, #1
 800111e:	4213      	tst	r3, r2
 8001120:	d1ec      	bne.n	80010fc <HAL_ADC_ConfigChannel+0x90>
 8001122:	1892      	adds	r2, r2, r2
 8001124:	2001      	movs	r0, #1
 8001126:	4213      	tst	r3, r2
 8001128:	d1e8      	bne.n	80010fc <HAL_ADC_ConfigChannel+0x90>
 800112a:	0010      	movs	r0, r2
 800112c:	3202      	adds	r2, #2
 800112e:	4213      	tst	r3, r2
 8001130:	d1e4      	bne.n	80010fc <HAL_ADC_ConfigChannel+0x90>
 8001132:	3001      	adds	r0, #1
 8001134:	071a      	lsls	r2, r3, #28
 8001136:	d4e1      	bmi.n	80010fc <HAL_ADC_ConfigChannel+0x90>
 8001138:	3001      	adds	r0, #1
 800113a:	06da      	lsls	r2, r3, #27
 800113c:	d4de      	bmi.n	80010fc <HAL_ADC_ConfigChannel+0x90>
 800113e:	3001      	adds	r0, #1
 8001140:	069a      	lsls	r2, r3, #26
 8001142:	d4db      	bmi.n	80010fc <HAL_ADC_ConfigChannel+0x90>
 8001144:	3001      	adds	r0, #1
 8001146:	065a      	lsls	r2, r3, #25
 8001148:	d4d8      	bmi.n	80010fc <HAL_ADC_ConfigChannel+0x90>
 800114a:	3001      	adds	r0, #1
 800114c:	061a      	lsls	r2, r3, #24
 800114e:	d4d5      	bmi.n	80010fc <HAL_ADC_ConfigChannel+0x90>
 8001150:	3001      	adds	r0, #1
 8001152:	05da      	lsls	r2, r3, #23
 8001154:	d4d2      	bmi.n	80010fc <HAL_ADC_ConfigChannel+0x90>
 8001156:	3001      	adds	r0, #1
 8001158:	059a      	lsls	r2, r3, #22
 800115a:	d4cf      	bmi.n	80010fc <HAL_ADC_ConfigChannel+0x90>
 800115c:	3001      	adds	r0, #1
 800115e:	055a      	lsls	r2, r3, #21
 8001160:	d4cc      	bmi.n	80010fc <HAL_ADC_ConfigChannel+0x90>
 8001162:	3001      	adds	r0, #1
 8001164:	051a      	lsls	r2, r3, #20
 8001166:	d4c9      	bmi.n	80010fc <HAL_ADC_ConfigChannel+0x90>
 8001168:	3001      	adds	r0, #1
 800116a:	04da      	lsls	r2, r3, #19
 800116c:	d4c6      	bmi.n	80010fc <HAL_ADC_ConfigChannel+0x90>
 800116e:	3001      	adds	r0, #1
 8001170:	049a      	lsls	r2, r3, #18
 8001172:	d4c3      	bmi.n	80010fc <HAL_ADC_ConfigChannel+0x90>
 8001174:	3001      	adds	r0, #1
 8001176:	045a      	lsls	r2, r3, #17
 8001178:	d4c0      	bmi.n	80010fc <HAL_ADC_ConfigChannel+0x90>
 800117a:	3001      	adds	r0, #1
 800117c:	041a      	lsls	r2, r3, #16
 800117e:	d4bd      	bmi.n	80010fc <HAL_ADC_ConfigChannel+0x90>
 8001180:	3001      	adds	r0, #1
 8001182:	03da      	lsls	r2, r3, #15
 8001184:	d4ba      	bmi.n	80010fc <HAL_ADC_ConfigChannel+0x90>
 8001186:	3001      	adds	r0, #1
 8001188:	039a      	lsls	r2, r3, #14
 800118a:	d4b7      	bmi.n	80010fc <HAL_ADC_ConfigChannel+0x90>
 800118c:	3001      	adds	r0, #1
 800118e:	035a      	lsls	r2, r3, #13
 8001190:	d4b4      	bmi.n	80010fc <HAL_ADC_ConfigChannel+0x90>
 8001192:	3001      	adds	r0, #1
 8001194:	031a      	lsls	r2, r3, #12
 8001196:	d4b1      	bmi.n	80010fc <HAL_ADC_ConfigChannel+0x90>
 8001198:	3001      	adds	r0, #1
 800119a:	02da      	lsls	r2, r3, #11
 800119c:	d4ae      	bmi.n	80010fc <HAL_ADC_ConfigChannel+0x90>
 800119e:	3001      	adds	r0, #1
 80011a0:	029a      	lsls	r2, r3, #10
 80011a2:	d4ab      	bmi.n	80010fc <HAL_ADC_ConfigChannel+0x90>
 80011a4:	2280      	movs	r2, #128	; 0x80
 80011a6:	0018      	movs	r0, r3
 80011a8:	03d2      	lsls	r2, r2, #15
 80011aa:	4010      	ands	r0, r2
 80011ac:	4213      	tst	r3, r2
 80011ae:	d0a5      	beq.n	80010fc <HAL_ADC_ConfigChannel+0x90>
 80011b0:	2016      	movs	r0, #22
 80011b2:	e7a3      	b.n	80010fc <HAL_ADC_ConfigChannel+0x90>
 80011b4:	24c0      	movs	r4, #192	; 0xc0
 80011b6:	4a32      	ldr	r2, [pc, #200]	; (8001280 <HAL_ADC_ConfigChannel+0x214>)
 80011b8:	4832      	ldr	r0, [pc, #200]	; (8001284 <HAL_ADC_ConfigChannel+0x218>)
 80011ba:	6811      	ldr	r1, [r2, #0]
 80011bc:	0424      	lsls	r4, r4, #16
 80011be:	400c      	ands	r4, r1
 80011c0:	4283      	cmp	r3, r0
 80011c2:	d119      	bne.n	80011f8 <HAL_ADC_ConfigChannel+0x18c>
 80011c4:	2080      	movs	r0, #128	; 0x80
 80011c6:	0400      	lsls	r0, r0, #16
 80011c8:	4201      	tst	r1, r0
 80011ca:	d186      	bne.n	80010da <HAL_ADC_ConfigChannel+0x6e>
 80011cc:	6813      	ldr	r3, [r2, #0]
 80011ce:	492e      	ldr	r1, [pc, #184]	; (8001288 <HAL_ADC_ConfigChannel+0x21c>)
 80011d0:	400b      	ands	r3, r1
 80011d2:	4323      	orrs	r3, r4
 80011d4:	4318      	orrs	r0, r3
 80011d6:	4b2d      	ldr	r3, [pc, #180]	; (800128c <HAL_ADC_ConfigChannel+0x220>)
 80011d8:	6010      	str	r0, [r2, #0]
 80011da:	6818      	ldr	r0, [r3, #0]
 80011dc:	492c      	ldr	r1, [pc, #176]	; (8001290 <HAL_ADC_ConfigChannel+0x224>)
 80011de:	f7fe ffb9 	bl	8000154 <__udivsi3>
 80011e2:	230c      	movs	r3, #12
 80011e4:	4343      	muls	r3, r0
 80011e6:	3301      	adds	r3, #1
 80011e8:	9303      	str	r3, [sp, #12]
 80011ea:	9b03      	ldr	r3, [sp, #12]
 80011ec:	2b00      	cmp	r3, #0
 80011ee:	d100      	bne.n	80011f2 <HAL_ADC_ConfigChannel+0x186>
 80011f0:	e773      	b.n	80010da <HAL_ADC_ConfigChannel+0x6e>
 80011f2:	9b03      	ldr	r3, [sp, #12]
 80011f4:	3b01      	subs	r3, #1
 80011f6:	e7f7      	b.n	80011e8 <HAL_ADC_ConfigChannel+0x17c>
 80011f8:	4826      	ldr	r0, [pc, #152]	; (8001294 <HAL_ADC_ConfigChannel+0x228>)
 80011fa:	4283      	cmp	r3, r0
 80011fc:	d000      	beq.n	8001200 <HAL_ADC_ConfigChannel+0x194>
 80011fe:	e76c      	b.n	80010da <HAL_ADC_ConfigChannel+0x6e>
 8001200:	2380      	movs	r3, #128	; 0x80
 8001202:	0008      	movs	r0, r1
 8001204:	03db      	lsls	r3, r3, #15
 8001206:	4018      	ands	r0, r3
 8001208:	4219      	tst	r1, r3
 800120a:	d000      	beq.n	800120e <HAL_ADC_ConfigChannel+0x1a2>
 800120c:	e765      	b.n	80010da <HAL_ADC_ConfigChannel+0x6e>
 800120e:	6811      	ldr	r1, [r2, #0]
 8001210:	4e1d      	ldr	r6, [pc, #116]	; (8001288 <HAL_ADC_ConfigChannel+0x21c>)
 8001212:	4031      	ands	r1, r6
 8001214:	4321      	orrs	r1, r4
 8001216:	430b      	orrs	r3, r1
 8001218:	6013      	str	r3, [r2, #0]
 800121a:	2300      	movs	r3, #0
 800121c:	3554      	adds	r5, #84	; 0x54
 800121e:	702b      	strb	r3, [r5, #0]
 8001220:	b005      	add	sp, #20
 8001222:	bdf0      	pop	{r4, r5, r6, r7, pc}
 8001224:	428f      	cmp	r7, r1
 8001226:	d104      	bne.n	8001232 <HAL_ADC_ConfigChannel+0x1c6>
 8001228:	6ab2      	ldr	r2, [r6, #40]	; 0x28
 800122a:	0259      	lsls	r1, r3, #9
 800122c:	0a49      	lsrs	r1, r1, #9
 800122e:	438a      	bics	r2, r1
 8001230:	62b2      	str	r2, [r6, #40]	; 0x28
 8001232:	2b00      	cmp	r3, #0
 8001234:	db00      	blt.n	8001238 <HAL_ADC_ConfigChannel+0x1cc>
 8001236:	e750      	b.n	80010da <HAL_ADC_ConfigChannel+0x6e>
 8001238:	4911      	ldr	r1, [pc, #68]	; (8001280 <HAL_ADC_ConfigChannel+0x214>)
 800123a:	4812      	ldr	r0, [pc, #72]	; (8001284 <HAL_ADC_ConfigChannel+0x218>)
 800123c:	680a      	ldr	r2, [r1, #0]
 800123e:	4283      	cmp	r3, r0
 8001240:	d108      	bne.n	8001254 <HAL_ADC_ConfigChannel+0x1e8>
 8001242:	2380      	movs	r3, #128	; 0x80
 8001244:	03db      	lsls	r3, r3, #15
 8001246:	6808      	ldr	r0, [r1, #0]
 8001248:	4013      	ands	r3, r2
 800124a:	4a0f      	ldr	r2, [pc, #60]	; (8001288 <HAL_ADC_ConfigChannel+0x21c>)
 800124c:	4002      	ands	r2, r0
 800124e:	4313      	orrs	r3, r2
 8001250:	600b      	str	r3, [r1, #0]
 8001252:	e742      	b.n	80010da <HAL_ADC_ConfigChannel+0x6e>
 8001254:	480f      	ldr	r0, [pc, #60]	; (8001294 <HAL_ADC_ConfigChannel+0x228>)
 8001256:	4283      	cmp	r3, r0
 8001258:	d000      	beq.n	800125c <HAL_ADC_ConfigChannel+0x1f0>
 800125a:	e73e      	b.n	80010da <HAL_ADC_ConfigChannel+0x6e>
 800125c:	2080      	movs	r0, #128	; 0x80
 800125e:	0400      	lsls	r0, r0, #16
 8001260:	680b      	ldr	r3, [r1, #0]
 8001262:	4002      	ands	r2, r0
 8001264:	4808      	ldr	r0, [pc, #32]	; (8001288 <HAL_ADC_ConfigChannel+0x21c>)
 8001266:	4003      	ands	r3, r0
 8001268:	431a      	orrs	r2, r3
 800126a:	600a      	str	r2, [r1, #0]
 800126c:	e735      	b.n	80010da <HAL_ADC_ConfigChannel+0x6e>
 800126e:	2320      	movs	r3, #32
 8001270:	6daa      	ldr	r2, [r5, #88]	; 0x58
 8001272:	2001      	movs	r0, #1
 8001274:	4313      	orrs	r3, r2
 8001276:	65ab      	str	r3, [r5, #88]	; 0x58
 8001278:	e7cf      	b.n	800121a <HAL_ADC_ConfigChannel+0x1ae>
 800127a:	46c0      	nop			; (mov r8, r8)
 800127c:	7fffff00 	.word	0x7fffff00
 8001280:	40012708 	.word	0x40012708
 8001284:	a4000200 	.word	0xa4000200
 8001288:	ff3fffff 	.word	0xff3fffff
 800128c:	20000000 	.word	0x20000000
 8001290:	00030d40 	.word	0x00030d40
 8001294:	a8000400 	.word	0xa8000400

08001298 <ADC_ConversionStop>:
 8001298:	b570      	push	{r4, r5, r6, lr}
 800129a:	6805      	ldr	r5, [r0, #0]
 800129c:	0004      	movs	r4, r0
 800129e:	0028      	movs	r0, r5
 80012a0:	f7ff fd6e 	bl	8000d80 <LL_ADC_REG_IsConversionOngoing>
 80012a4:	2800      	cmp	r0, #0
 80012a6:	d101      	bne.n	80012ac <ADC_ConversionStop+0x14>
 80012a8:	2000      	movs	r0, #0
 80012aa:	bd70      	pop	{r4, r5, r6, pc}
 80012ac:	68ab      	ldr	r3, [r5, #8]
 80012ae:	079b      	lsls	r3, r3, #30
 80012b0:	d405      	bmi.n	80012be <ADC_ConversionStop+0x26>
 80012b2:	68aa      	ldr	r2, [r5, #8]
 80012b4:	4b0d      	ldr	r3, [pc, #52]	; (80012ec <ADC_ConversionStop+0x54>)
 80012b6:	401a      	ands	r2, r3
 80012b8:	2310      	movs	r3, #16
 80012ba:	4313      	orrs	r3, r2
 80012bc:	60ab      	str	r3, [r5, #8]
 80012be:	f7ff fd37 	bl	8000d30 <HAL_GetTick>
 80012c2:	2604      	movs	r6, #4
 80012c4:	0005      	movs	r5, r0
 80012c6:	6823      	ldr	r3, [r4, #0]
 80012c8:	689b      	ldr	r3, [r3, #8]
 80012ca:	4233      	tst	r3, r6
 80012cc:	d0ec      	beq.n	80012a8 <ADC_ConversionStop+0x10>
 80012ce:	f7ff fd2f 	bl	8000d30 <HAL_GetTick>
 80012d2:	1b40      	subs	r0, r0, r5
 80012d4:	2802      	cmp	r0, #2
 80012d6:	d9f6      	bls.n	80012c6 <ADC_ConversionStop+0x2e>
 80012d8:	2310      	movs	r3, #16
 80012da:	2001      	movs	r0, #1
 80012dc:	6da2      	ldr	r2, [r4, #88]	; 0x58
 80012de:	4313      	orrs	r3, r2
 80012e0:	65a3      	str	r3, [r4, #88]	; 0x58
 80012e2:	6de3      	ldr	r3, [r4, #92]	; 0x5c
 80012e4:	4303      	orrs	r3, r0
 80012e6:	65e3      	str	r3, [r4, #92]	; 0x5c
 80012e8:	e7df      	b.n	80012aa <ADC_ConversionStop+0x12>
 80012ea:	46c0      	nop			; (mov r8, r8)
 80012ec:	7fffffe8 	.word	0x7fffffe8

080012f0 <ADC_Enable>:
 80012f0:	2300      	movs	r3, #0
 80012f2:	b5f7      	push	{r0, r1, r2, r4, r5, r6, r7, lr}
 80012f4:	0004      	movs	r4, r0
 80012f6:	9301      	str	r3, [sp, #4]
 80012f8:	6803      	ldr	r3, [r0, #0]
 80012fa:	2001      	movs	r0, #1
 80012fc:	689a      	ldr	r2, [r3, #8]
 80012fe:	4202      	tst	r2, r0
 8001300:	d001      	beq.n	8001306 <ADC_Enable+0x16>
 8001302:	2000      	movs	r0, #0
 8001304:	bdfe      	pop	{r1, r2, r3, r4, r5, r6, r7, pc}
 8001306:	6899      	ldr	r1, [r3, #8]
 8001308:	4a1f      	ldr	r2, [pc, #124]	; (8001388 <ADC_Enable+0x98>)
 800130a:	4211      	tst	r1, r2
 800130c:	d007      	beq.n	800131e <ADC_Enable+0x2e>
 800130e:	2310      	movs	r3, #16
 8001310:	6da2      	ldr	r2, [r4, #88]	; 0x58
 8001312:	4313      	orrs	r3, r2
 8001314:	65a3      	str	r3, [r4, #88]	; 0x58
 8001316:	6de3      	ldr	r3, [r4, #92]	; 0x5c
 8001318:	4303      	orrs	r3, r0
 800131a:	65e3      	str	r3, [r4, #92]	; 0x5c
 800131c:	e7f2      	b.n	8001304 <ADC_Enable+0x14>
 800131e:	689a      	ldr	r2, [r3, #8]
 8001320:	4d1a      	ldr	r5, [pc, #104]	; (800138c <ADC_Enable+0x9c>)
 8001322:	402a      	ands	r2, r5
 8001324:	4310      	orrs	r0, r2
 8001326:	6098      	str	r0, [r3, #8]
 8001328:	4b19      	ldr	r3, [pc, #100]	; (8001390 <ADC_Enable+0xa0>)
 800132a:	681b      	ldr	r3, [r3, #0]
 800132c:	021b      	lsls	r3, r3, #8
 800132e:	d41d      	bmi.n	800136c <ADC_Enable+0x7c>
 8001330:	7e63      	ldrb	r3, [r4, #25]
 8001332:	2b01      	cmp	r3, #1
 8001334:	d0e5      	beq.n	8001302 <ADC_Enable+0x12>
 8001336:	f7ff fcfb 	bl	8000d30 <HAL_GetTick>
 800133a:	2601      	movs	r6, #1
 800133c:	0007      	movs	r7, r0
 800133e:	6822      	ldr	r2, [r4, #0]
 8001340:	6813      	ldr	r3, [r2, #0]
 8001342:	4233      	tst	r3, r6
 8001344:	d1dd      	bne.n	8001302 <ADC_Enable+0x12>
 8001346:	6893      	ldr	r3, [r2, #8]
 8001348:	4233      	tst	r3, r6
 800134a:	d103      	bne.n	8001354 <ADC_Enable+0x64>
 800134c:	6893      	ldr	r3, [r2, #8]
 800134e:	402b      	ands	r3, r5
 8001350:	4333      	orrs	r3, r6
 8001352:	6093      	str	r3, [r2, #8]
 8001354:	f7ff fcec 	bl	8000d30 <HAL_GetTick>
 8001358:	1bc0      	subs	r0, r0, r7
 800135a:	2802      	cmp	r0, #2
 800135c:	d9ef      	bls.n	800133e <ADC_Enable+0x4e>
 800135e:	2310      	movs	r3, #16
 8001360:	6da2      	ldr	r2, [r4, #88]	; 0x58
 8001362:	2001      	movs	r0, #1
 8001364:	4313      	orrs	r3, r2
 8001366:	65a3      	str	r3, [r4, #88]	; 0x58
 8001368:	6de3      	ldr	r3, [r4, #92]	; 0x5c
 800136a:	e7d5      	b.n	8001318 <ADC_Enable+0x28>
 800136c:	4b09      	ldr	r3, [pc, #36]	; (8001394 <ADC_Enable+0xa4>)
 800136e:	490a      	ldr	r1, [pc, #40]	; (8001398 <ADC_Enable+0xa8>)
 8001370:	6818      	ldr	r0, [r3, #0]
 8001372:	f7fe feef 	bl	8000154 <__udivsi3>
 8001376:	3001      	adds	r0, #1
 8001378:	9001      	str	r0, [sp, #4]
 800137a:	9b01      	ldr	r3, [sp, #4]
 800137c:	2b00      	cmp	r3, #0
 800137e:	d0d7      	beq.n	8001330 <ADC_Enable+0x40>
 8001380:	9b01      	ldr	r3, [sp, #4]
 8001382:	3b01      	subs	r3, #1
 8001384:	9301      	str	r3, [sp, #4]
 8001386:	e7f8      	b.n	800137a <ADC_Enable+0x8a>
 8001388:	80000017 	.word	0x80000017
 800138c:	7fffffe8 	.word	0x7fffffe8
 8001390:	40012708 	.word	0x40012708
 8001394:	20000000 	.word	0x20000000
 8001398:	00030d40 	.word	0x00030d40

0800139c <HAL_ADC_Start>:
 800139c:	b570      	push	{r4, r5, r6, lr}
 800139e:	0004      	movs	r4, r0
 80013a0:	6800      	ldr	r0, [r0, #0]
 80013a2:	f7ff fced 	bl	8000d80 <LL_ADC_REG_IsConversionOngoing>
 80013a6:	0006      	movs	r6, r0
 80013a8:	2002      	movs	r0, #2
 80013aa:	2e00      	cmp	r6, #0
 80013ac:	d11d      	bne.n	80013ea <HAL_ADC_Start+0x4e>
 80013ae:	0025      	movs	r5, r4
 80013b0:	3554      	adds	r5, #84	; 0x54
 80013b2:	782b      	ldrb	r3, [r5, #0]
 80013b4:	2b01      	cmp	r3, #1
 80013b6:	d018      	beq.n	80013ea <HAL_ADC_Start+0x4e>
 80013b8:	2301      	movs	r3, #1
 80013ba:	0020      	movs	r0, r4
 80013bc:	702b      	strb	r3, [r5, #0]
 80013be:	f7ff ff97 	bl	80012f0 <ADC_Enable>
 80013c2:	2800      	cmp	r0, #0
 80013c4:	d112      	bne.n	80013ec <HAL_ADC_Start+0x50>
 80013c6:	6da2      	ldr	r2, [r4, #88]	; 0x58
 80013c8:	4b09      	ldr	r3, [pc, #36]	; (80013f0 <HAL_ADC_Start+0x54>)
 80013ca:	401a      	ands	r2, r3
 80013cc:	2380      	movs	r3, #128	; 0x80
 80013ce:	005b      	lsls	r3, r3, #1
 80013d0:	4313      	orrs	r3, r2
 80013d2:	221c      	movs	r2, #28
 80013d4:	65a3      	str	r3, [r4, #88]	; 0x58
 80013d6:	6823      	ldr	r3, [r4, #0]
 80013d8:	65e0      	str	r0, [r4, #92]	; 0x5c
 80013da:	601a      	str	r2, [r3, #0]
 80013dc:	7028      	strb	r0, [r5, #0]
 80013de:	6899      	ldr	r1, [r3, #8]
 80013e0:	4a04      	ldr	r2, [pc, #16]	; (80013f4 <HAL_ADC_Start+0x58>)
 80013e2:	4011      	ands	r1, r2
 80013e4:	2204      	movs	r2, #4
 80013e6:	430a      	orrs	r2, r1
 80013e8:	609a      	str	r2, [r3, #8]
 80013ea:	bd70      	pop	{r4, r5, r6, pc}
 80013ec:	702e      	strb	r6, [r5, #0]
 80013ee:	e7fc      	b.n	80013ea <HAL_ADC_Start+0x4e>
 80013f0:	fffff0fe 	.word	0xfffff0fe
 80013f4:	7fffffe8 	.word	0x7fffffe8

080013f8 <ADC_Disable>:
 80013f8:	6803      	ldr	r3, [r0, #0]
 80013fa:	b570      	push	{r4, r5, r6, lr}
 80013fc:	0004      	movs	r4, r0
 80013fe:	2001      	movs	r0, #1
 8001400:	6899      	ldr	r1, [r3, #8]
 8001402:	689a      	ldr	r2, [r3, #8]
 8001404:	4202      	tst	r2, r0
 8001406:	d101      	bne.n	800140c <ADC_Disable+0x14>
 8001408:	2000      	movs	r0, #0
 800140a:	bd70      	pop	{r4, r5, r6, pc}
 800140c:	2202      	movs	r2, #2
 800140e:	4211      	tst	r1, r2
 8001410:	d1fa      	bne.n	8001408 <ADC_Disable+0x10>
 8001412:	2105      	movs	r1, #5
 8001414:	689d      	ldr	r5, [r3, #8]
 8001416:	400d      	ands	r5, r1
 8001418:	2d01      	cmp	r5, #1
 800141a:	d11b      	bne.n	8001454 <ADC_Disable+0x5c>
 800141c:	6899      	ldr	r1, [r3, #8]
 800141e:	4811      	ldr	r0, [pc, #68]	; (8001464 <ADC_Disable+0x6c>)
 8001420:	4001      	ands	r1, r0
 8001422:	430a      	orrs	r2, r1
 8001424:	609a      	str	r2, [r3, #8]
 8001426:	2203      	movs	r2, #3
 8001428:	601a      	str	r2, [r3, #0]
 800142a:	f7ff fc81 	bl	8000d30 <HAL_GetTick>
 800142e:	0006      	movs	r6, r0
 8001430:	6823      	ldr	r3, [r4, #0]
 8001432:	689b      	ldr	r3, [r3, #8]
 8001434:	422b      	tst	r3, r5
 8001436:	d0e7      	beq.n	8001408 <ADC_Disable+0x10>
 8001438:	f7ff fc7a 	bl	8000d30 <HAL_GetTick>
 800143c:	1b80      	subs	r0, r0, r6
 800143e:	2802      	cmp	r0, #2
 8001440:	d9f6      	bls.n	8001430 <ADC_Disable+0x38>
 8001442:	2310      	movs	r3, #16
 8001444:	6da2      	ldr	r2, [r4, #88]	; 0x58
 8001446:	2001      	movs	r0, #1
 8001448:	4313      	orrs	r3, r2
 800144a:	65a3      	str	r3, [r4, #88]	; 0x58
 800144c:	6de3      	ldr	r3, [r4, #92]	; 0x5c
 800144e:	432b      	orrs	r3, r5
 8001450:	65e3      	str	r3, [r4, #92]	; 0x5c
 8001452:	e7da      	b.n	800140a <ADC_Disable+0x12>
 8001454:	2310      	movs	r3, #16
 8001456:	6da2      	ldr	r2, [r4, #88]	; 0x58
 8001458:	4313      	orrs	r3, r2
 800145a:	65a3      	str	r3, [r4, #88]	; 0x58
 800145c:	6de3      	ldr	r3, [r4, #92]	; 0x5c
 800145e:	4303      	orrs	r3, r0
 8001460:	65e3      	str	r3, [r4, #92]	; 0x5c
 8001462:	e7d2      	b.n	800140a <ADC_Disable+0x12>
 8001464:	7fffffe8 	.word	0x7fffffe8

08001468 <HAL_ADC_Stop>:
 8001468:	b570      	push	{r4, r5, r6, lr}
 800146a:	0006      	movs	r6, r0
 800146c:	3654      	adds	r6, #84	; 0x54
 800146e:	7833      	ldrb	r3, [r6, #0]
 8001470:	0004      	movs	r4, r0
 8001472:	2002      	movs	r0, #2
 8001474:	2b01      	cmp	r3, #1
 8001476:	d012      	beq.n	800149e <HAL_ADC_Stop+0x36>
 8001478:	2501      	movs	r5, #1
 800147a:	0020      	movs	r0, r4
 800147c:	7035      	strb	r5, [r6, #0]
 800147e:	f7ff ff0b 	bl	8001298 <ADC_ConversionStop>
 8001482:	2800      	cmp	r0, #0
 8001484:	d109      	bne.n	800149a <HAL_ADC_Stop+0x32>
 8001486:	0020      	movs	r0, r4
 8001488:	f7ff ffb6 	bl	80013f8 <ADC_Disable>
 800148c:	2800      	cmp	r0, #0
 800148e:	d104      	bne.n	800149a <HAL_ADC_Stop+0x32>
 8001490:	6da3      	ldr	r3, [r4, #88]	; 0x58
 8001492:	4a03      	ldr	r2, [pc, #12]	; (80014a0 <HAL_ADC_Stop+0x38>)
 8001494:	4013      	ands	r3, r2
 8001496:	431d      	orrs	r5, r3
 8001498:	65a5      	str	r5, [r4, #88]	; 0x58
 800149a:	2300      	movs	r3, #0
 800149c:	7033      	strb	r3, [r6, #0]
 800149e:	bd70      	pop	{r4, r5, r6, pc}
 80014a0:	fffffefe 	.word	0xfffffefe

080014a4 <HAL_NVIC_SetPriority>:
 80014a4:	b530      	push	{r4, r5, lr}
 80014a6:	25ff      	movs	r5, #255	; 0xff
 80014a8:	2403      	movs	r4, #3
 80014aa:	002a      	movs	r2, r5
 80014ac:	4004      	ands	r4, r0
 80014ae:	00e4      	lsls	r4, r4, #3
 80014b0:	40a2      	lsls	r2, r4
 80014b2:	0189      	lsls	r1, r1, #6
 80014b4:	4029      	ands	r1, r5
 80014b6:	43d2      	mvns	r2, r2
 80014b8:	40a1      	lsls	r1, r4
 80014ba:	b2c3      	uxtb	r3, r0
 80014bc:	2800      	cmp	r0, #0
 80014be:	db0a      	blt.n	80014d6 <HAL_NVIC_SetPriority+0x32>
 80014c0:	24c0      	movs	r4, #192	; 0xc0
 80014c2:	4b0b      	ldr	r3, [pc, #44]	; (80014f0 <HAL_NVIC_SetPriority+0x4c>)
 80014c4:	0880      	lsrs	r0, r0, #2
 80014c6:	0080      	lsls	r0, r0, #2
 80014c8:	18c0      	adds	r0, r0, r3
 80014ca:	00a4      	lsls	r4, r4, #2
 80014cc:	5903      	ldr	r3, [r0, r4]
 80014ce:	4013      	ands	r3, r2
 80014d0:	430b      	orrs	r3, r1
 80014d2:	5103      	str	r3, [r0, r4]
 80014d4:	bd30      	pop	{r4, r5, pc}
 80014d6:	200f      	movs	r0, #15
 80014d8:	4003      	ands	r3, r0
 80014da:	3b08      	subs	r3, #8
 80014dc:	4805      	ldr	r0, [pc, #20]	; (80014f4 <HAL_NVIC_SetPriority+0x50>)
 80014de:	089b      	lsrs	r3, r3, #2
 80014e0:	009b      	lsls	r3, r3, #2
 80014e2:	181b      	adds	r3, r3, r0
 80014e4:	69d8      	ldr	r0, [r3, #28]
 80014e6:	4002      	ands	r2, r0
 80014e8:	430a      	orrs	r2, r1
 80014ea:	61da      	str	r2, [r3, #28]
 80014ec:	e7f2      	b.n	80014d4 <HAL_NVIC_SetPriority+0x30>
 80014ee:	46c0      	nop			; (mov r8, r8)
 80014f0:	e000e100 	.word	0xe000e100
 80014f4:	e000ed00 	.word	0xe000ed00

080014f8 <HAL_NVIC_EnableIRQ>:
 80014f8:	2800      	cmp	r0, #0
 80014fa:	db05      	blt.n	8001508 <HAL_NVIC_EnableIRQ+0x10>
 80014fc:	231f      	movs	r3, #31
 80014fe:	4018      	ands	r0, r3
 8001500:	3b1e      	subs	r3, #30
 8001502:	4083      	lsls	r3, r0
 8001504:	4a01      	ldr	r2, [pc, #4]	; (800150c <HAL_NVIC_EnableIRQ+0x14>)
 8001506:	6013      	str	r3, [r2, #0]
 8001508:	4770      	bx	lr
 800150a:	46c0      	nop			; (mov r8, r8)
 800150c:	e000e100 	.word	0xe000e100

08001510 <HAL_SYSTICK_Config>:
 8001510:	2280      	movs	r2, #128	; 0x80
 8001512:	1e43      	subs	r3, r0, #1
 8001514:	0452      	lsls	r2, r2, #17
 8001516:	2001      	movs	r0, #1
 8001518:	4293      	cmp	r3, r2
 800151a:	d20d      	bcs.n	8001538 <HAL_SYSTICK_Config+0x28>
 800151c:	21c0      	movs	r1, #192	; 0xc0
 800151e:	4a07      	ldr	r2, [pc, #28]	; (800153c <HAL_SYSTICK_Config+0x2c>)
 8001520:	4807      	ldr	r0, [pc, #28]	; (8001540 <HAL_SYSTICK_Config+0x30>)
 8001522:	6053      	str	r3, [r2, #4]
 8001524:	6a03      	ldr	r3, [r0, #32]
 8001526:	0609      	lsls	r1, r1, #24
 8001528:	021b      	lsls	r3, r3, #8
 800152a:	0a1b      	lsrs	r3, r3, #8
 800152c:	430b      	orrs	r3, r1
 800152e:	6203      	str	r3, [r0, #32]
 8001530:	2000      	movs	r0, #0
 8001532:	2307      	movs	r3, #7
 8001534:	6090      	str	r0, [r2, #8]
 8001536:	6013      	str	r3, [r2, #0]
 8001538:	4770      	bx	lr
 800153a:	46c0      	nop			; (mov r8, r8)
 800153c:	e000e010 	.word	0xe000e010
 8001540:	e000ed00 	.word	0xe000ed00

08001544 <HAL_GPIO_Init>:
 8001544:	4a54      	ldr	r2, [pc, #336]	; (8001698 <HAL_GPIO_Init+0x154>)
 8001546:	b5f0      	push	{r4, r5, r6, r7, lr}
 8001548:	1882      	adds	r2, r0, r2
 800154a:	1e54      	subs	r4, r2, #1
 800154c:	41a2      	sbcs	r2, r4
 800154e:	2300      	movs	r3, #0
 8001550:	b087      	sub	sp, #28
 8001552:	3205      	adds	r2, #5
 8001554:	9102      	str	r1, [sp, #8]
 8001556:	9205      	str	r2, [sp, #20]
 8001558:	9a02      	ldr	r2, [sp, #8]
 800155a:	6812      	ldr	r2, [r2, #0]
 800155c:	0014      	movs	r4, r2
 800155e:	40dc      	lsrs	r4, r3
 8001560:	d101      	bne.n	8001566 <HAL_GPIO_Init+0x22>
 8001562:	b007      	add	sp, #28
 8001564:	bdf0      	pop	{r4, r5, r6, r7, pc}
 8001566:	2401      	movs	r4, #1
 8001568:	409c      	lsls	r4, r3
 800156a:	9403      	str	r4, [sp, #12]
 800156c:	9903      	ldr	r1, [sp, #12]
 800156e:	4014      	ands	r4, r2
 8001570:	9401      	str	r4, [sp, #4]
 8001572:	420a      	tst	r2, r1
 8001574:	d100      	bne.n	8001578 <HAL_GPIO_Init+0x34>
 8001576:	e08c      	b.n	8001692 <HAL_GPIO_Init+0x14e>
 8001578:	9a02      	ldr	r2, [sp, #8]
 800157a:	2410      	movs	r4, #16
 800157c:	6852      	ldr	r2, [r2, #4]
 800157e:	0015      	movs	r5, r2
 8001580:	43a5      	bics	r5, r4
 8001582:	0029      	movs	r1, r5
 8001584:	9504      	str	r5, [sp, #16]
 8001586:	2d02      	cmp	r5, #2
 8001588:	d112      	bne.n	80015b0 <HAL_GPIO_Init+0x6c>
 800158a:	2607      	movs	r6, #7
 800158c:	310d      	adds	r1, #13
 800158e:	000c      	movs	r4, r1
 8001590:	401e      	ands	r6, r3
 8001592:	00b6      	lsls	r6, r6, #2
 8001594:	468c      	mov	ip, r1
 8001596:	40b4      	lsls	r4, r6
 8001598:	08dd      	lsrs	r5, r3, #3
 800159a:	00ad      	lsls	r5, r5, #2
 800159c:	1945      	adds	r5, r0, r5
 800159e:	6a2f      	ldr	r7, [r5, #32]
 80015a0:	9902      	ldr	r1, [sp, #8]
 80015a2:	43a7      	bics	r7, r4
 80015a4:	690c      	ldr	r4, [r1, #16]
 80015a6:	4661      	mov	r1, ip
 80015a8:	400c      	ands	r4, r1
 80015aa:	40b4      	lsls	r4, r6
 80015ac:	433c      	orrs	r4, r7
 80015ae:	622c      	str	r4, [r5, #32]
 80015b0:	2403      	movs	r4, #3
 80015b2:	0027      	movs	r7, r4
 80015b4:	005d      	lsls	r5, r3, #1
 80015b6:	40af      	lsls	r7, r5
 80015b8:	4014      	ands	r4, r2
 80015ba:	0039      	movs	r1, r7
 80015bc:	40ac      	lsls	r4, r5
 80015be:	6806      	ldr	r6, [r0, #0]
 80015c0:	43ff      	mvns	r7, r7
 80015c2:	438e      	bics	r6, r1
 80015c4:	4334      	orrs	r4, r6
 80015c6:	6004      	str	r4, [r0, #0]
 80015c8:	9c04      	ldr	r4, [sp, #16]
 80015ca:	3c01      	subs	r4, #1
 80015cc:	2c01      	cmp	r4, #1
 80015ce:	d80d      	bhi.n	80015ec <HAL_GPIO_Init+0xa8>
 80015d0:	9902      	ldr	r1, [sp, #8]
 80015d2:	6886      	ldr	r6, [r0, #8]
 80015d4:	68cc      	ldr	r4, [r1, #12]
 80015d6:	403e      	ands	r6, r7
 80015d8:	40ac      	lsls	r4, r5
 80015da:	4334      	orrs	r4, r6
 80015dc:	6084      	str	r4, [r0, #8]
 80015de:	0914      	lsrs	r4, r2, #4
 80015e0:	409c      	lsls	r4, r3
 80015e2:	6846      	ldr	r6, [r0, #4]
 80015e4:	9903      	ldr	r1, [sp, #12]
 80015e6:	438e      	bics	r6, r1
 80015e8:	4334      	orrs	r4, r6
 80015ea:	6044      	str	r4, [r0, #4]
 80015ec:	2a03      	cmp	r2, #3
 80015ee:	d050      	beq.n	8001692 <HAL_GPIO_Init+0x14e>
 80015f0:	9902      	ldr	r1, [sp, #8]
 80015f2:	68c6      	ldr	r6, [r0, #12]
 80015f4:	688c      	ldr	r4, [r1, #8]
 80015f6:	403e      	ands	r6, r7
 80015f8:	40ac      	lsls	r4, r5
 80015fa:	4334      	orrs	r4, r6
 80015fc:	60c4      	str	r4, [r0, #12]
 80015fe:	00d4      	lsls	r4, r2, #3
 8001600:	d547      	bpl.n	8001692 <HAL_GPIO_Init+0x14e>
 8001602:	2703      	movs	r7, #3
 8001604:	001e      	movs	r6, r3
 8001606:	403e      	ands	r6, r7
 8001608:	40be      	lsls	r6, r7
 800160a:	240f      	movs	r4, #15
 800160c:	40b4      	lsls	r4, r6
 800160e:	4923      	ldr	r1, [pc, #140]	; (800169c <HAL_GPIO_Init+0x158>)
 8001610:	089d      	lsrs	r5, r3, #2
 8001612:	00ad      	lsls	r5, r5, #2
 8001614:	186d      	adds	r5, r5, r1
 8001616:	6e29      	ldr	r1, [r5, #96]	; 0x60
 8001618:	43a1      	bics	r1, r4
 800161a:	9103      	str	r1, [sp, #12]
 800161c:	21a0      	movs	r1, #160	; 0xa0
 800161e:	2400      	movs	r4, #0
 8001620:	05c9      	lsls	r1, r1, #23
 8001622:	4288      	cmp	r0, r1
 8001624:	d00c      	beq.n	8001640 <HAL_GPIO_Init+0xfc>
 8001626:	491e      	ldr	r1, [pc, #120]	; (80016a0 <HAL_GPIO_Init+0x15c>)
 8001628:	3401      	adds	r4, #1
 800162a:	4288      	cmp	r0, r1
 800162c:	d008      	beq.n	8001640 <HAL_GPIO_Init+0xfc>
 800162e:	491d      	ldr	r1, [pc, #116]	; (80016a4 <HAL_GPIO_Init+0x160>)
 8001630:	3401      	adds	r4, #1
 8001632:	4288      	cmp	r0, r1
 8001634:	d004      	beq.n	8001640 <HAL_GPIO_Init+0xfc>
 8001636:	491c      	ldr	r1, [pc, #112]	; (80016a8 <HAL_GPIO_Init+0x164>)
 8001638:	003c      	movs	r4, r7
 800163a:	4288      	cmp	r0, r1
 800163c:	d000      	beq.n	8001640 <HAL_GPIO_Init+0xfc>
 800163e:	9c05      	ldr	r4, [sp, #20]
 8001640:	40b4      	lsls	r4, r6
 8001642:	9903      	ldr	r1, [sp, #12]
 8001644:	430c      	orrs	r4, r1
 8001646:	9901      	ldr	r1, [sp, #4]
 8001648:	662c      	str	r4, [r5, #96]	; 0x60
 800164a:	000e      	movs	r6, r1
 800164c:	4c17      	ldr	r4, [pc, #92]	; (80016ac <HAL_GPIO_Init+0x168>)
 800164e:	43cd      	mvns	r5, r1
 8001650:	6fe7      	ldr	r7, [r4, #124]	; 0x7c
 8001652:	433e      	orrs	r6, r7
 8001654:	03d1      	lsls	r1, r2, #15
 8001656:	d401      	bmi.n	800165c <HAL_GPIO_Init+0x118>
 8001658:	003e      	movs	r6, r7
 800165a:	402e      	ands	r6, r5
 800165c:	67e6      	str	r6, [r4, #124]	; 0x7c
 800165e:	4e14      	ldr	r6, [pc, #80]	; (80016b0 <HAL_GPIO_Init+0x16c>)
 8001660:	9f01      	ldr	r7, [sp, #4]
 8001662:	6ff4      	ldr	r4, [r6, #124]	; 0x7c
 8001664:	4327      	orrs	r7, r4
 8001666:	0391      	lsls	r1, r2, #14
 8001668:	d401      	bmi.n	800166e <HAL_GPIO_Init+0x12a>
 800166a:	402c      	ands	r4, r5
 800166c:	0027      	movs	r7, r4
 800166e:	4c0b      	ldr	r4, [pc, #44]	; (800169c <HAL_GPIO_Init+0x158>)
 8001670:	67f7      	str	r7, [r6, #124]	; 0x7c
 8001672:	6827      	ldr	r7, [r4, #0]
 8001674:	9e01      	ldr	r6, [sp, #4]
 8001676:	433e      	orrs	r6, r7
 8001678:	02d1      	lsls	r1, r2, #11
 800167a:	d401      	bmi.n	8001680 <HAL_GPIO_Init+0x13c>
 800167c:	003e      	movs	r6, r7
 800167e:	402e      	ands	r6, r5
 8001680:	6026      	str	r6, [r4, #0]
 8001682:	6866      	ldr	r6, [r4, #4]
 8001684:	9f01      	ldr	r7, [sp, #4]
 8001686:	4337      	orrs	r7, r6
 8001688:	0292      	lsls	r2, r2, #10
 800168a:	d401      	bmi.n	8001690 <HAL_GPIO_Init+0x14c>
 800168c:	402e      	ands	r6, r5
 800168e:	0037      	movs	r7, r6
 8001690:	6067      	str	r7, [r4, #4]
 8001692:	3301      	adds	r3, #1
 8001694:	e760      	b.n	8001558 <HAL_GPIO_Init+0x14>
 8001696:	46c0      	nop			; (mov r8, r8)
 8001698:	afffec00 	.word	0xafffec00
 800169c:	40021800 	.word	0x40021800
 80016a0:	50000400 	.word	0x50000400
 80016a4:	50000800 	.word	0x50000800
 80016a8:	50000c00 	.word	0x50000c00
 80016ac:	40021804 	.word	0x40021804
 80016b0:	40021808 	.word	0x40021808

080016b4 <HAL_GPIO_ReadPin>:
 80016b4:	6900      	ldr	r0, [r0, #16]
 80016b6:	4008      	ands	r0, r1
 80016b8:	1e43      	subs	r3, r0, #1
 80016ba:	4198      	sbcs	r0, r3
 80016bc:	b2c0      	uxtb	r0, r0
 80016be:	4770      	bx	lr

080016c0 <HAL_GPIO_WritePin>:
 80016c0:	2a00      	cmp	r2, #0
 80016c2:	d001      	beq.n	80016c8 <HAL_GPIO_WritePin+0x8>
 80016c4:	6181      	str	r1, [r0, #24]
 80016c6:	4770      	bx	lr
 80016c8:	6281      	str	r1, [r0, #40]	; 0x28
 80016ca:	e7fc      	b.n	80016c6 <HAL_GPIO_WritePin+0x6>

080016cc <HAL_GPIO_EXTI_Rising_Callback>:
 80016cc:	4770      	bx	lr
	...

080016d0 <HAL_GPIO_EXTI_IRQHandler>:
 80016d0:	b570      	push	{r4, r5, r6, lr}
 80016d2:	4d08      	ldr	r5, [pc, #32]	; (80016f4 <HAL_GPIO_EXTI_IRQHandler+0x24>)
 80016d4:	0004      	movs	r4, r0
 80016d6:	68eb      	ldr	r3, [r5, #12]
 80016d8:	4218      	tst	r0, r3
 80016da:	d002      	beq.n	80016e2 <HAL_GPIO_EXTI_IRQHandler+0x12>
 80016dc:	60e8      	str	r0, [r5, #12]
 80016de:	f7ff fff5 	bl	80016cc <HAL_GPIO_EXTI_Rising_Callback>
 80016e2:	692b      	ldr	r3, [r5, #16]
 80016e4:	4223      	tst	r3, r4
 80016e6:	d003      	beq.n	80016f0 <HAL_GPIO_EXTI_IRQHandler+0x20>
 80016e8:	0020      	movs	r0, r4
 80016ea:	612c      	str	r4, [r5, #16]
 80016ec:	f7fe fdbe 	bl	800026c <HAL_GPIO_EXTI_Falling_Callback>
 80016f0:	bd70      	pop	{r4, r5, r6, pc}
 80016f2:	46c0      	nop			; (mov r8, r8)
 80016f4:	40021800 	.word	0x40021800

080016f8 <HAL_PWR_EnterSLEEPMode>:
 80016f8:	2004      	movs	r0, #4
 80016fa:	4a06      	ldr	r2, [pc, #24]	; (8001714 <HAL_PWR_EnterSLEEPMode+0x1c>)
 80016fc:	6913      	ldr	r3, [r2, #16]
 80016fe:	4383      	bics	r3, r0
 8001700:	6113      	str	r3, [r2, #16]
 8001702:	2901      	cmp	r1, #1
 8001704:	d101      	bne.n	800170a <HAL_PWR_EnterSLEEPMode+0x12>
 8001706:	bf30      	wfi
 8001708:	4770      	bx	lr
 800170a:	bf40      	sev
 800170c:	bf20      	wfe
 800170e:	bf20      	wfe
 8001710:	e7fa      	b.n	8001708 <HAL_PWR_EnterSLEEPMode+0x10>
 8001712:	46c0      	nop			; (mov r8, r8)
 8001714:	e000ed00 	.word	0xe000ed00

08001718 <HAL_RCC_OscConfig>:
 8001718:	b5f8      	push	{r3, r4, r5, r6, r7, lr}
 800171a:	1e05      	subs	r5, r0, #0
 800171c:	d101      	bne.n	8001722 <HAL_RCC_OscConfig+0xa>
 800171e:	2001      	movs	r0, #1
 8001720:	bdf8      	pop	{r3, r4, r5, r6, r7, pc}
 8001722:	6803      	ldr	r3, [r0, #0]
 8001724:	07db      	lsls	r3, r3, #31
 8001726:	d40d      	bmi.n	8001744 <HAL_RCC_OscConfig+0x2c>
 8001728:	682b      	ldr	r3, [r5, #0]
 800172a:	079b      	lsls	r3, r3, #30
 800172c:	d44f      	bmi.n	80017ce <HAL_RCC_OscConfig+0xb6>
 800172e:	682b      	ldr	r3, [r5, #0]
 8001730:	071b      	lsls	r3, r3, #28
 8001732:	d500      	bpl.n	8001736 <HAL_RCC_OscConfig+0x1e>
 8001734:	e0a4      	b.n	8001880 <HAL_RCC_OscConfig+0x168>
 8001736:	2204      	movs	r2, #4
 8001738:	682b      	ldr	r3, [r5, #0]
 800173a:	4213      	tst	r3, r2
 800173c:	d000      	beq.n	8001740 <HAL_RCC_OscConfig+0x28>
 800173e:	e0cf      	b.n	80018e0 <HAL_RCC_OscConfig+0x1c8>
 8001740:	2000      	movs	r0, #0
 8001742:	e7ed      	b.n	8001720 <HAL_RCC_OscConfig+0x8>
 8001744:	2138      	movs	r1, #56	; 0x38
 8001746:	4c85      	ldr	r4, [pc, #532]	; (800195c <HAL_RCC_OscConfig+0x244>)
 8001748:	6843      	ldr	r3, [r0, #4]
 800174a:	68a2      	ldr	r2, [r4, #8]
 800174c:	400a      	ands	r2, r1
 800174e:	2a08      	cmp	r2, #8
 8001750:	d102      	bne.n	8001758 <HAL_RCC_OscConfig+0x40>
 8001752:	2b00      	cmp	r3, #0
 8001754:	d1e8      	bne.n	8001728 <HAL_RCC_OscConfig+0x10>
 8001756:	e7e2      	b.n	800171e <HAL_RCC_OscConfig+0x6>
 8001758:	2280      	movs	r2, #128	; 0x80
 800175a:	0252      	lsls	r2, r2, #9
 800175c:	4293      	cmp	r3, r2
 800175e:	d111      	bne.n	8001784 <HAL_RCC_OscConfig+0x6c>
 8001760:	6822      	ldr	r2, [r4, #0]
 8001762:	4313      	orrs	r3, r2
 8001764:	6023      	str	r3, [r4, #0]
 8001766:	f7ff fae3 	bl	8000d30 <HAL_GetTick>
 800176a:	2780      	movs	r7, #128	; 0x80
 800176c:	0006      	movs	r6, r0
 800176e:	02bf      	lsls	r7, r7, #10
 8001770:	6823      	ldr	r3, [r4, #0]
 8001772:	423b      	tst	r3, r7
 8001774:	d1d8      	bne.n	8001728 <HAL_RCC_OscConfig+0x10>
 8001776:	f7ff fadb 	bl	8000d30 <HAL_GetTick>
 800177a:	1b80      	subs	r0, r0, r6
 800177c:	2864      	cmp	r0, #100	; 0x64
 800177e:	d9f7      	bls.n	8001770 <HAL_RCC_OscConfig+0x58>
 8001780:	2003      	movs	r0, #3
 8001782:	e7cd      	b.n	8001720 <HAL_RCC_OscConfig+0x8>
 8001784:	21a0      	movs	r1, #160	; 0xa0
 8001786:	02c9      	lsls	r1, r1, #11
 8001788:	428b      	cmp	r3, r1
 800178a:	d108      	bne.n	800179e <HAL_RCC_OscConfig+0x86>
 800178c:	2380      	movs	r3, #128	; 0x80
 800178e:	6821      	ldr	r1, [r4, #0]
 8001790:	02db      	lsls	r3, r3, #11
 8001792:	430b      	orrs	r3, r1
 8001794:	6023      	str	r3, [r4, #0]
 8001796:	6823      	ldr	r3, [r4, #0]
 8001798:	431a      	orrs	r2, r3
 800179a:	6022      	str	r2, [r4, #0]
 800179c:	e7e3      	b.n	8001766 <HAL_RCC_OscConfig+0x4e>
 800179e:	6822      	ldr	r2, [r4, #0]
 80017a0:	496f      	ldr	r1, [pc, #444]	; (8001960 <HAL_RCC_OscConfig+0x248>)
 80017a2:	400a      	ands	r2, r1
 80017a4:	6022      	str	r2, [r4, #0]
 80017a6:	6822      	ldr	r2, [r4, #0]
 80017a8:	496e      	ldr	r1, [pc, #440]	; (8001964 <HAL_RCC_OscConfig+0x24c>)
 80017aa:	400a      	ands	r2, r1
 80017ac:	6022      	str	r2, [r4, #0]
 80017ae:	2b00      	cmp	r3, #0
 80017b0:	d1d9      	bne.n	8001766 <HAL_RCC_OscConfig+0x4e>
 80017b2:	f7ff fabd 	bl	8000d30 <HAL_GetTick>
 80017b6:	2780      	movs	r7, #128	; 0x80
 80017b8:	0006      	movs	r6, r0
 80017ba:	02bf      	lsls	r7, r7, #10
 80017bc:	6823      	ldr	r3, [r4, #0]
 80017be:	423b      	tst	r3, r7
 80017c0:	d0b2      	beq.n	8001728 <HAL_RCC_OscConfig+0x10>
 80017c2:	f7ff fab5 	bl	8000d30 <HAL_GetTick>
 80017c6:	1b80      	subs	r0, r0, r6
 80017c8:	2864      	cmp	r0, #100	; 0x64
 80017ca:	d9f7      	bls.n	80017bc <HAL_RCC_OscConfig+0xa4>
 80017cc:	e7d8      	b.n	8001780 <HAL_RCC_OscConfig+0x68>
 80017ce:	2238      	movs	r2, #56	; 0x38
 80017d0:	4c62      	ldr	r4, [pc, #392]	; (800195c <HAL_RCC_OscConfig+0x244>)
 80017d2:	68eb      	ldr	r3, [r5, #12]
 80017d4:	68a1      	ldr	r1, [r4, #8]
 80017d6:	4211      	tst	r1, r2
 80017d8:	d11c      	bne.n	8001814 <HAL_RCC_OscConfig+0xfc>
 80017da:	2b00      	cmp	r3, #0
 80017dc:	d09f      	beq.n	800171e <HAL_RCC_OscConfig+0x6>
 80017de:	6862      	ldr	r2, [r4, #4]
 80017e0:	696b      	ldr	r3, [r5, #20]
 80017e2:	4961      	ldr	r1, [pc, #388]	; (8001968 <HAL_RCC_OscConfig+0x250>)
 80017e4:	021b      	lsls	r3, r3, #8
 80017e6:	400a      	ands	r2, r1
 80017e8:	4313      	orrs	r3, r2
 80017ea:	6063      	str	r3, [r4, #4]
 80017ec:	6823      	ldr	r3, [r4, #0]
 80017ee:	4a5f      	ldr	r2, [pc, #380]	; (800196c <HAL_RCC_OscConfig+0x254>)
 80017f0:	495f      	ldr	r1, [pc, #380]	; (8001970 <HAL_RCC_OscConfig+0x258>)
 80017f2:	4013      	ands	r3, r2
 80017f4:	692a      	ldr	r2, [r5, #16]
 80017f6:	4313      	orrs	r3, r2
 80017f8:	6023      	str	r3, [r4, #0]
 80017fa:	6823      	ldr	r3, [r4, #0]
 80017fc:	4a5d      	ldr	r2, [pc, #372]	; (8001974 <HAL_RCC_OscConfig+0x25c>)
 80017fe:	049b      	lsls	r3, r3, #18
 8001800:	0f5b      	lsrs	r3, r3, #29
 8001802:	40da      	lsrs	r2, r3
 8001804:	4b5c      	ldr	r3, [pc, #368]	; (8001978 <HAL_RCC_OscConfig+0x260>)
 8001806:	600a      	str	r2, [r1, #0]
 8001808:	6818      	ldr	r0, [r3, #0]
 800180a:	f7ff fa51 	bl	8000cb0 <HAL_InitTick>
 800180e:	2800      	cmp	r0, #0
 8001810:	d08d      	beq.n	800172e <HAL_RCC_OscConfig+0x16>
 8001812:	e784      	b.n	800171e <HAL_RCC_OscConfig+0x6>
 8001814:	2b00      	cmp	r3, #0
 8001816:	d020      	beq.n	800185a <HAL_RCC_OscConfig+0x142>
 8001818:	6823      	ldr	r3, [r4, #0]
 800181a:	4a54      	ldr	r2, [pc, #336]	; (800196c <HAL_RCC_OscConfig+0x254>)
 800181c:	2780      	movs	r7, #128	; 0x80
 800181e:	4013      	ands	r3, r2
 8001820:	692a      	ldr	r2, [r5, #16]
 8001822:	00ff      	lsls	r7, r7, #3
 8001824:	4313      	orrs	r3, r2
 8001826:	6023      	str	r3, [r4, #0]
 8001828:	2380      	movs	r3, #128	; 0x80
 800182a:	6822      	ldr	r2, [r4, #0]
 800182c:	005b      	lsls	r3, r3, #1
 800182e:	4313      	orrs	r3, r2
 8001830:	6023      	str	r3, [r4, #0]
 8001832:	f7ff fa7d 	bl	8000d30 <HAL_GetTick>
 8001836:	0006      	movs	r6, r0
 8001838:	6823      	ldr	r3, [r4, #0]
 800183a:	423b      	tst	r3, r7
 800183c:	d007      	beq.n	800184e <HAL_RCC_OscConfig+0x136>
 800183e:	6862      	ldr	r2, [r4, #4]
 8001840:	696b      	ldr	r3, [r5, #20]
 8001842:	4949      	ldr	r1, [pc, #292]	; (8001968 <HAL_RCC_OscConfig+0x250>)
 8001844:	021b      	lsls	r3, r3, #8
 8001846:	400a      	ands	r2, r1
 8001848:	4313      	orrs	r3, r2
 800184a:	6063      	str	r3, [r4, #4]
 800184c:	e76f      	b.n	800172e <HAL_RCC_OscConfig+0x16>
 800184e:	f7ff fa6f 	bl	8000d30 <HAL_GetTick>
 8001852:	1b80      	subs	r0, r0, r6
 8001854:	2802      	cmp	r0, #2
 8001856:	d9ef      	bls.n	8001838 <HAL_RCC_OscConfig+0x120>
 8001858:	e792      	b.n	8001780 <HAL_RCC_OscConfig+0x68>
 800185a:	6823      	ldr	r3, [r4, #0]
 800185c:	4a47      	ldr	r2, [pc, #284]	; (800197c <HAL_RCC_OscConfig+0x264>)
 800185e:	2780      	movs	r7, #128	; 0x80
 8001860:	4013      	ands	r3, r2
 8001862:	6023      	str	r3, [r4, #0]
 8001864:	f7ff fa64 	bl	8000d30 <HAL_GetTick>
 8001868:	0006      	movs	r6, r0
 800186a:	00ff      	lsls	r7, r7, #3
 800186c:	6823      	ldr	r3, [r4, #0]
 800186e:	423b      	tst	r3, r7
 8001870:	d100      	bne.n	8001874 <HAL_RCC_OscConfig+0x15c>
 8001872:	e75c      	b.n	800172e <HAL_RCC_OscConfig+0x16>
 8001874:	f7ff fa5c 	bl	8000d30 <HAL_GetTick>
 8001878:	1b80      	subs	r0, r0, r6
 800187a:	2802      	cmp	r0, #2
 800187c:	d9f6      	bls.n	800186c <HAL_RCC_OscConfig+0x154>
 800187e:	e77f      	b.n	8001780 <HAL_RCC_OscConfig+0x68>
 8001880:	2138      	movs	r1, #56	; 0x38
 8001882:	4c36      	ldr	r4, [pc, #216]	; (800195c <HAL_RCC_OscConfig+0x244>)
 8001884:	69aa      	ldr	r2, [r5, #24]
 8001886:	68a3      	ldr	r3, [r4, #8]
 8001888:	400b      	ands	r3, r1
 800188a:	2b18      	cmp	r3, #24
 800188c:	d103      	bne.n	8001896 <HAL_RCC_OscConfig+0x17e>
 800188e:	2a00      	cmp	r2, #0
 8001890:	d000      	beq.n	8001894 <HAL_RCC_OscConfig+0x17c>
 8001892:	e750      	b.n	8001736 <HAL_RCC_OscConfig+0x1e>
 8001894:	e743      	b.n	800171e <HAL_RCC_OscConfig+0x6>
 8001896:	2301      	movs	r3, #1
 8001898:	2a00      	cmp	r2, #0
 800189a:	d010      	beq.n	80018be <HAL_RCC_OscConfig+0x1a6>
 800189c:	6e22      	ldr	r2, [r4, #96]	; 0x60
 800189e:	2702      	movs	r7, #2
 80018a0:	4313      	orrs	r3, r2
 80018a2:	6623      	str	r3, [r4, #96]	; 0x60
 80018a4:	f7ff fa44 	bl	8000d30 <HAL_GetTick>
 80018a8:	0006      	movs	r6, r0
 80018aa:	6e23      	ldr	r3, [r4, #96]	; 0x60
 80018ac:	423b      	tst	r3, r7
 80018ae:	d000      	beq.n	80018b2 <HAL_RCC_OscConfig+0x19a>
 80018b0:	e741      	b.n	8001736 <HAL_RCC_OscConfig+0x1e>
 80018b2:	f7ff fa3d 	bl	8000d30 <HAL_GetTick>
 80018b6:	1b80      	subs	r0, r0, r6
 80018b8:	2802      	cmp	r0, #2
 80018ba:	d9f6      	bls.n	80018aa <HAL_RCC_OscConfig+0x192>
 80018bc:	e760      	b.n	8001780 <HAL_RCC_OscConfig+0x68>
 80018be:	6e22      	ldr	r2, [r4, #96]	; 0x60
 80018c0:	2702      	movs	r7, #2
 80018c2:	439a      	bics	r2, r3
 80018c4:	6622      	str	r2, [r4, #96]	; 0x60
 80018c6:	f7ff fa33 	bl	8000d30 <HAL_GetTick>
 80018ca:	0006      	movs	r6, r0
 80018cc:	6e23      	ldr	r3, [r4, #96]	; 0x60
 80018ce:	423b      	tst	r3, r7
 80018d0:	d100      	bne.n	80018d4 <HAL_RCC_OscConfig+0x1bc>
 80018d2:	e730      	b.n	8001736 <HAL_RCC_OscConfig+0x1e>
 80018d4:	f7ff fa2c 	bl	8000d30 <HAL_GetTick>
 80018d8:	1b80      	subs	r0, r0, r6
 80018da:	2802      	cmp	r0, #2
 80018dc:	d9f6      	bls.n	80018cc <HAL_RCC_OscConfig+0x1b4>
 80018de:	e74f      	b.n	8001780 <HAL_RCC_OscConfig+0x68>
 80018e0:	2138      	movs	r1, #56	; 0x38
 80018e2:	4c1e      	ldr	r4, [pc, #120]	; (800195c <HAL_RCC_OscConfig+0x244>)
 80018e4:	68a8      	ldr	r0, [r5, #8]
 80018e6:	68a3      	ldr	r3, [r4, #8]
 80018e8:	400b      	ands	r3, r1
 80018ea:	2b20      	cmp	r3, #32
 80018ec:	d103      	bne.n	80018f6 <HAL_RCC_OscConfig+0x1de>
 80018ee:	4243      	negs	r3, r0
 80018f0:	4158      	adcs	r0, r3
 80018f2:	b2c0      	uxtb	r0, r0
 80018f4:	e714      	b.n	8001720 <HAL_RCC_OscConfig+0x8>
 80018f6:	6de3      	ldr	r3, [r4, #92]	; 0x5c
 80018f8:	2801      	cmp	r0, #1
 80018fa:	d110      	bne.n	800191e <HAL_RCC_OscConfig+0x206>
 80018fc:	4303      	orrs	r3, r0
 80018fe:	65e3      	str	r3, [r4, #92]	; 0x5c
 8001900:	f7ff fa16 	bl	8000d30 <HAL_GetTick>
 8001904:	2602      	movs	r6, #2
 8001906:	0005      	movs	r5, r0
 8001908:	6de3      	ldr	r3, [r4, #92]	; 0x5c
 800190a:	4233      	tst	r3, r6
 800190c:	d000      	beq.n	8001910 <HAL_RCC_OscConfig+0x1f8>
 800190e:	e717      	b.n	8001740 <HAL_RCC_OscConfig+0x28>
 8001910:	f7ff fa0e 	bl	8000d30 <HAL_GetTick>
 8001914:	4b1a      	ldr	r3, [pc, #104]	; (8001980 <HAL_RCC_OscConfig+0x268>)
 8001916:	1b40      	subs	r0, r0, r5
 8001918:	4298      	cmp	r0, r3
 800191a:	d9f5      	bls.n	8001908 <HAL_RCC_OscConfig+0x1f0>
 800191c:	e730      	b.n	8001780 <HAL_RCC_OscConfig+0x68>
 800191e:	2805      	cmp	r0, #5
 8001920:	d105      	bne.n	800192e <HAL_RCC_OscConfig+0x216>
 8001922:	4313      	orrs	r3, r2
 8001924:	65e3      	str	r3, [r4, #92]	; 0x5c
 8001926:	2301      	movs	r3, #1
 8001928:	6de2      	ldr	r2, [r4, #92]	; 0x5c
 800192a:	4313      	orrs	r3, r2
 800192c:	e7e7      	b.n	80018fe <HAL_RCC_OscConfig+0x1e6>
 800192e:	2101      	movs	r1, #1
 8001930:	438b      	bics	r3, r1
 8001932:	65e3      	str	r3, [r4, #92]	; 0x5c
 8001934:	6de3      	ldr	r3, [r4, #92]	; 0x5c
 8001936:	4393      	bics	r3, r2
 8001938:	65e3      	str	r3, [r4, #92]	; 0x5c
 800193a:	2800      	cmp	r0, #0
 800193c:	d1e0      	bne.n	8001900 <HAL_RCC_OscConfig+0x1e8>
 800193e:	f7ff f9f7 	bl	8000d30 <HAL_GetTick>
 8001942:	2602      	movs	r6, #2
 8001944:	0005      	movs	r5, r0
 8001946:	6de3      	ldr	r3, [r4, #92]	; 0x5c
 8001948:	4233      	tst	r3, r6
 800194a:	d100      	bne.n	800194e <HAL_RCC_OscConfig+0x236>
 800194c:	e6f8      	b.n	8001740 <HAL_RCC_OscConfig+0x28>
 800194e:	f7ff f9ef 	bl	8000d30 <HAL_GetTick>
 8001952:	4b0b      	ldr	r3, [pc, #44]	; (8001980 <HAL_RCC_OscConfig+0x268>)
 8001954:	1b40      	subs	r0, r0, r5
 8001956:	4298      	cmp	r0, r3
 8001958:	d9f5      	bls.n	8001946 <HAL_RCC_OscConfig+0x22e>
 800195a:	e711      	b.n	8001780 <HAL_RCC_OscConfig+0x68>
 800195c:	40021000 	.word	0x40021000
 8001960:	fffeffff 	.word	0xfffeffff
 8001964:	fffbffff 	.word	0xfffbffff
 8001968:	ffff80ff 	.word	0xffff80ff
 800196c:	ffffc7ff 	.word	0xffffc7ff
 8001970:	20000000 	.word	0x20000000
 8001974:	02dc6c00 	.word	0x02dc6c00
 8001978:	20000008 	.word	0x20000008
 800197c:	fffffeff 	.word	0xfffffeff
 8001980:	00001388 	.word	0x00001388

08001984 <HAL_RCC_GetSysClockFreq>:
 8001984:	2238      	movs	r2, #56	; 0x38
 8001986:	4b0f      	ldr	r3, [pc, #60]	; (80019c4 <HAL_RCC_GetSysClockFreq+0x40>)
 8001988:	6899      	ldr	r1, [r3, #8]
 800198a:	4211      	tst	r1, r2
 800198c:	d105      	bne.n	800199a <HAL_RCC_GetSysClockFreq+0x16>
 800198e:	681b      	ldr	r3, [r3, #0]
 8001990:	480d      	ldr	r0, [pc, #52]	; (80019c8 <HAL_RCC_GetSysClockFreq+0x44>)
 8001992:	049b      	lsls	r3, r3, #18
 8001994:	0f5b      	lsrs	r3, r3, #29
 8001996:	40d8      	lsrs	r0, r3
 8001998:	4770      	bx	lr
 800199a:	6899      	ldr	r1, [r3, #8]
 800199c:	4011      	ands	r1, r2
 800199e:	2908      	cmp	r1, #8
 80019a0:	d00b      	beq.n	80019ba <HAL_RCC_GetSysClockFreq+0x36>
 80019a2:	6899      	ldr	r1, [r3, #8]
 80019a4:	4011      	ands	r1, r2
 80019a6:	2920      	cmp	r1, #32
 80019a8:	d009      	beq.n	80019be <HAL_RCC_GetSysClockFreq+0x3a>
 80019aa:	689b      	ldr	r3, [r3, #8]
 80019ac:	2000      	movs	r0, #0
 80019ae:	4013      	ands	r3, r2
 80019b0:	2b18      	cmp	r3, #24
 80019b2:	d1f1      	bne.n	8001998 <HAL_RCC_GetSysClockFreq+0x14>
 80019b4:	20fa      	movs	r0, #250	; 0xfa
 80019b6:	01c0      	lsls	r0, r0, #7
 80019b8:	e7ee      	b.n	8001998 <HAL_RCC_GetSysClockFreq+0x14>
 80019ba:	4803      	ldr	r0, [pc, #12]	; (80019c8 <HAL_RCC_GetSysClockFreq+0x44>)
 80019bc:	e7ec      	b.n	8001998 <HAL_RCC_GetSysClockFreq+0x14>
 80019be:	2080      	movs	r0, #128	; 0x80
 80019c0:	0200      	lsls	r0, r0, #8
 80019c2:	e7e9      	b.n	8001998 <HAL_RCC_GetSysClockFreq+0x14>
 80019c4:	40021000 	.word	0x40021000
 80019c8:	02dc6c00 	.word	0x02dc6c00

080019cc <HAL_RCC_ClockConfig>:
 80019cc:	b5f7      	push	{r0, r1, r2, r4, r5, r6, r7, lr}
 80019ce:	0004      	movs	r4, r0
 80019d0:	000d      	movs	r5, r1
 80019d2:	2800      	cmp	r0, #0
 80019d4:	d101      	bne.n	80019da <HAL_RCC_ClockConfig+0xe>
 80019d6:	2001      	movs	r0, #1
 80019d8:	bdfe      	pop	{r1, r2, r3, r4, r5, r6, r7, pc}
 80019da:	2707      	movs	r7, #7
 80019dc:	4e4b      	ldr	r6, [pc, #300]	; (8001b0c <HAL_RCC_ClockConfig+0x140>)
 80019de:	6833      	ldr	r3, [r6, #0]
 80019e0:	403b      	ands	r3, r7
 80019e2:	428b      	cmp	r3, r1
 80019e4:	d32a      	bcc.n	8001a3c <HAL_RCC_ClockConfig+0x70>
 80019e6:	6822      	ldr	r2, [r4, #0]
 80019e8:	0793      	lsls	r3, r2, #30
 80019ea:	d43b      	bmi.n	8001a64 <HAL_RCC_ClockConfig+0x98>
 80019ec:	07d2      	lsls	r2, r2, #31
 80019ee:	d44a      	bmi.n	8001a86 <HAL_RCC_ClockConfig+0xba>
 80019f0:	2707      	movs	r7, #7
 80019f2:	6833      	ldr	r3, [r6, #0]
 80019f4:	403b      	ands	r3, r7
 80019f6:	42ab      	cmp	r3, r5
 80019f8:	d90a      	bls.n	8001a10 <HAL_RCC_ClockConfig+0x44>
 80019fa:	6833      	ldr	r3, [r6, #0]
 80019fc:	43bb      	bics	r3, r7
 80019fe:	432b      	orrs	r3, r5
 8001a00:	6033      	str	r3, [r6, #0]
 8001a02:	f7ff f995 	bl	8000d30 <HAL_GetTick>
 8001a06:	9001      	str	r0, [sp, #4]
 8001a08:	6833      	ldr	r3, [r6, #0]
 8001a0a:	403b      	ands	r3, r7
 8001a0c:	42ab      	cmp	r3, r5
 8001a0e:	d16d      	bne.n	8001aec <HAL_RCC_ClockConfig+0x120>
 8001a10:	6823      	ldr	r3, [r4, #0]
 8001a12:	4d3f      	ldr	r5, [pc, #252]	; (8001b10 <HAL_RCC_ClockConfig+0x144>)
 8001a14:	075b      	lsls	r3, r3, #29
 8001a16:	d471      	bmi.n	8001afc <HAL_RCC_ClockConfig+0x130>
 8001a18:	f7ff ffb4 	bl	8001984 <HAL_RCC_GetSysClockFreq>
 8001a1c:	68ab      	ldr	r3, [r5, #8]
 8001a1e:	493d      	ldr	r1, [pc, #244]	; (8001b14 <HAL_RCC_ClockConfig+0x148>)
 8001a20:	051b      	lsls	r3, r3, #20
 8001a22:	0f1b      	lsrs	r3, r3, #28
 8001a24:	009b      	lsls	r3, r3, #2
 8001a26:	585b      	ldr	r3, [r3, r1]
 8001a28:	211f      	movs	r1, #31
 8001a2a:	400b      	ands	r3, r1
 8001a2c:	40d8      	lsrs	r0, r3
 8001a2e:	4a3a      	ldr	r2, [pc, #232]	; (8001b18 <HAL_RCC_ClockConfig+0x14c>)
 8001a30:	4b3a      	ldr	r3, [pc, #232]	; (8001b1c <HAL_RCC_ClockConfig+0x150>)
 8001a32:	6010      	str	r0, [r2, #0]
 8001a34:	6818      	ldr	r0, [r3, #0]
 8001a36:	f7ff f93b 	bl	8000cb0 <HAL_InitTick>
 8001a3a:	e7cd      	b.n	80019d8 <HAL_RCC_ClockConfig+0xc>
 8001a3c:	6833      	ldr	r3, [r6, #0]
 8001a3e:	43bb      	bics	r3, r7
 8001a40:	430b      	orrs	r3, r1
 8001a42:	6033      	str	r3, [r6, #0]
 8001a44:	f7ff f974 	bl	8000d30 <HAL_GetTick>
 8001a48:	9001      	str	r0, [sp, #4]
 8001a4a:	6833      	ldr	r3, [r6, #0]
 8001a4c:	403b      	ands	r3, r7
 8001a4e:	42ab      	cmp	r3, r5
 8001a50:	d0c9      	beq.n	80019e6 <HAL_RCC_ClockConfig+0x1a>
 8001a52:	f7ff f96d 	bl	8000d30 <HAL_GetTick>
 8001a56:	9b01      	ldr	r3, [sp, #4]
 8001a58:	1ac0      	subs	r0, r0, r3
 8001a5a:	4b31      	ldr	r3, [pc, #196]	; (8001b20 <HAL_RCC_ClockConfig+0x154>)
 8001a5c:	4298      	cmp	r0, r3
 8001a5e:	d9f4      	bls.n	8001a4a <HAL_RCC_ClockConfig+0x7e>
 8001a60:	2003      	movs	r0, #3
 8001a62:	e7b9      	b.n	80019d8 <HAL_RCC_ClockConfig+0xc>
 8001a64:	492a      	ldr	r1, [pc, #168]	; (8001b10 <HAL_RCC_ClockConfig+0x144>)
 8001a66:	0753      	lsls	r3, r2, #29
 8001a68:	d506      	bpl.n	8001a78 <HAL_RCC_ClockConfig+0xac>
 8001a6a:	6888      	ldr	r0, [r1, #8]
 8001a6c:	4b2d      	ldr	r3, [pc, #180]	; (8001b24 <HAL_RCC_ClockConfig+0x158>)
 8001a6e:	4018      	ands	r0, r3
 8001a70:	23b0      	movs	r3, #176	; 0xb0
 8001a72:	011b      	lsls	r3, r3, #4
 8001a74:	4303      	orrs	r3, r0
 8001a76:	608b      	str	r3, [r1, #8]
 8001a78:	688b      	ldr	r3, [r1, #8]
 8001a7a:	482b      	ldr	r0, [pc, #172]	; (8001b28 <HAL_RCC_ClockConfig+0x15c>)
 8001a7c:	4003      	ands	r3, r0
 8001a7e:	68e0      	ldr	r0, [r4, #12]
 8001a80:	4303      	orrs	r3, r0
 8001a82:	608b      	str	r3, [r1, #8]
 8001a84:	e7b2      	b.n	80019ec <HAL_RCC_ClockConfig+0x20>
 8001a86:	221c      	movs	r2, #28
 8001a88:	4f21      	ldr	r7, [pc, #132]	; (8001b10 <HAL_RCC_ClockConfig+0x144>)
 8001a8a:	683b      	ldr	r3, [r7, #0]
 8001a8c:	4393      	bics	r3, r2
 8001a8e:	68a2      	ldr	r2, [r4, #8]
 8001a90:	4313      	orrs	r3, r2
 8001a92:	603b      	str	r3, [r7, #0]
 8001a94:	6862      	ldr	r2, [r4, #4]
 8001a96:	2a01      	cmp	r2, #1
 8001a98:	d119      	bne.n	8001ace <HAL_RCC_ClockConfig+0x102>
 8001a9a:	683b      	ldr	r3, [r7, #0]
 8001a9c:	039b      	lsls	r3, r3, #14
 8001a9e:	d59a      	bpl.n	80019d6 <HAL_RCC_ClockConfig+0xa>
 8001aa0:	2107      	movs	r1, #7
 8001aa2:	68bb      	ldr	r3, [r7, #8]
 8001aa4:	438b      	bics	r3, r1
 8001aa6:	4313      	orrs	r3, r2
 8001aa8:	60bb      	str	r3, [r7, #8]
 8001aaa:	f7ff f941 	bl	8000d30 <HAL_GetTick>
 8001aae:	9001      	str	r0, [sp, #4]
 8001ab0:	2338      	movs	r3, #56	; 0x38
 8001ab2:	68ba      	ldr	r2, [r7, #8]
 8001ab4:	401a      	ands	r2, r3
 8001ab6:	6863      	ldr	r3, [r4, #4]
 8001ab8:	00db      	lsls	r3, r3, #3
 8001aba:	429a      	cmp	r2, r3
 8001abc:	d098      	beq.n	80019f0 <HAL_RCC_ClockConfig+0x24>
 8001abe:	f7ff f937 	bl	8000d30 <HAL_GetTick>
 8001ac2:	9b01      	ldr	r3, [sp, #4]
 8001ac4:	1ac0      	subs	r0, r0, r3
 8001ac6:	4b16      	ldr	r3, [pc, #88]	; (8001b20 <HAL_RCC_ClockConfig+0x154>)
 8001ac8:	4298      	cmp	r0, r3
 8001aca:	d9f1      	bls.n	8001ab0 <HAL_RCC_ClockConfig+0xe4>
 8001acc:	e7c8      	b.n	8001a60 <HAL_RCC_ClockConfig+0x94>
 8001ace:	2a00      	cmp	r2, #0
 8001ad0:	d103      	bne.n	8001ada <HAL_RCC_ClockConfig+0x10e>
 8001ad2:	683b      	ldr	r3, [r7, #0]
 8001ad4:	055b      	lsls	r3, r3, #21
 8001ad6:	d4e3      	bmi.n	8001aa0 <HAL_RCC_ClockConfig+0xd4>
 8001ad8:	e77d      	b.n	80019d6 <HAL_RCC_ClockConfig+0xa>
 8001ada:	2302      	movs	r3, #2
 8001adc:	2a03      	cmp	r2, #3
 8001ade:	d103      	bne.n	8001ae8 <HAL_RCC_ClockConfig+0x11c>
 8001ae0:	6e39      	ldr	r1, [r7, #96]	; 0x60
 8001ae2:	4219      	tst	r1, r3
 8001ae4:	d1dc      	bne.n	8001aa0 <HAL_RCC_ClockConfig+0xd4>
 8001ae6:	e776      	b.n	80019d6 <HAL_RCC_ClockConfig+0xa>
 8001ae8:	6df9      	ldr	r1, [r7, #92]	; 0x5c
 8001aea:	e7fa      	b.n	8001ae2 <HAL_RCC_ClockConfig+0x116>
 8001aec:	f7ff f920 	bl	8000d30 <HAL_GetTick>
 8001af0:	9b01      	ldr	r3, [sp, #4]
 8001af2:	1ac0      	subs	r0, r0, r3
 8001af4:	4b0a      	ldr	r3, [pc, #40]	; (8001b20 <HAL_RCC_ClockConfig+0x154>)
 8001af6:	4298      	cmp	r0, r3
 8001af8:	d986      	bls.n	8001a08 <HAL_RCC_ClockConfig+0x3c>
 8001afa:	e7b1      	b.n	8001a60 <HAL_RCC_ClockConfig+0x94>
 8001afc:	68ab      	ldr	r3, [r5, #8]
 8001afe:	4a0b      	ldr	r2, [pc, #44]	; (8001b2c <HAL_RCC_ClockConfig+0x160>)
 8001b00:	4013      	ands	r3, r2
 8001b02:	6922      	ldr	r2, [r4, #16]
 8001b04:	4313      	orrs	r3, r2
 8001b06:	60ab      	str	r3, [r5, #8]
 8001b08:	e786      	b.n	8001a18 <HAL_RCC_ClockConfig+0x4c>
 8001b0a:	46c0      	nop			; (mov r8, r8)
 8001b0c:	40022000 	.word	0x40022000
 8001b10:	40021000 	.word	0x40021000
 8001b14:	08003458 	.word	0x08003458
 8001b18:	20000000 	.word	0x20000000
 8001b1c:	20000008 	.word	0x20000008
 8001b20:	00001388 	.word	0x00001388
 8001b24:	ffff84ff 	.word	0xffff84ff
 8001b28:	fffff0ff 	.word	0xfffff0ff
 8001b2c:	ffff8fff 	.word	0xffff8fff

08001b30 <HAL_RCC_GetPCLK1Freq>:
 8001b30:	4b06      	ldr	r3, [pc, #24]	; (8001b4c <HAL_RCC_GetPCLK1Freq+0x1c>)
 8001b32:	4907      	ldr	r1, [pc, #28]	; (8001b50 <HAL_RCC_GetPCLK1Freq+0x20>)
 8001b34:	689b      	ldr	r3, [r3, #8]
 8001b36:	4a07      	ldr	r2, [pc, #28]	; (8001b54 <HAL_RCC_GetPCLK1Freq+0x24>)
 8001b38:	045b      	lsls	r3, r3, #17
 8001b3a:	0f5b      	lsrs	r3, r3, #29
 8001b3c:	009b      	lsls	r3, r3, #2
 8001b3e:	585b      	ldr	r3, [r3, r1]
 8001b40:	211f      	movs	r1, #31
 8001b42:	6810      	ldr	r0, [r2, #0]
 8001b44:	400b      	ands	r3, r1
 8001b46:	40d8      	lsrs	r0, r3
 8001b48:	4770      	bx	lr
 8001b4a:	46c0      	nop			; (mov r8, r8)
 8001b4c:	40021000 	.word	0x40021000
 8001b50:	08003498 	.word	0x08003498
 8001b54:	20000000 	.word	0x20000000

08001b58 <HAL_RCCEx_PeriphCLKConfig>:
 8001b58:	b5f0      	push	{r4, r5, r6, r7, lr}
 8001b5a:	6803      	ldr	r3, [r0, #0]
 8001b5c:	0005      	movs	r5, r0
 8001b5e:	b085      	sub	sp, #20
 8001b60:	2000      	movs	r0, #0
 8001b62:	039b      	lsls	r3, r3, #14
 8001b64:	d523      	bpl.n	8001bae <HAL_RCCEx_PeriphCLKConfig+0x56>
 8001b66:	2280      	movs	r2, #128	; 0x80
 8001b68:	4c39      	ldr	r4, [pc, #228]	; (8001c50 <HAL_RCCEx_PeriphCLKConfig+0xf8>)
 8001b6a:	0552      	lsls	r2, r2, #21
 8001b6c:	6be3      	ldr	r3, [r4, #60]	; 0x3c
 8001b6e:	0006      	movs	r6, r0
 8001b70:	4213      	tst	r3, r2
 8001b72:	d107      	bne.n	8001b84 <HAL_RCCEx_PeriphCLKConfig+0x2c>
 8001b74:	6be3      	ldr	r3, [r4, #60]	; 0x3c
 8001b76:	3601      	adds	r6, #1
 8001b78:	4313      	orrs	r3, r2
 8001b7a:	63e3      	str	r3, [r4, #60]	; 0x3c
 8001b7c:	6be3      	ldr	r3, [r4, #60]	; 0x3c
 8001b7e:	4013      	ands	r3, r2
 8001b80:	9303      	str	r3, [sp, #12]
 8001b82:	9b03      	ldr	r3, [sp, #12]
 8001b84:	6de2      	ldr	r2, [r4, #92]	; 0x5c
 8001b86:	23c0      	movs	r3, #192	; 0xc0
 8001b88:	0010      	movs	r0, r2
 8001b8a:	009b      	lsls	r3, r3, #2
 8001b8c:	69a9      	ldr	r1, [r5, #24]
 8001b8e:	4f31      	ldr	r7, [pc, #196]	; (8001c54 <HAL_RCCEx_PeriphCLKConfig+0xfc>)
 8001b90:	4018      	ands	r0, r3
 8001b92:	421a      	tst	r2, r3
 8001b94:	d13b      	bne.n	8001c0e <HAL_RCCEx_PeriphCLKConfig+0xb6>
 8001b96:	2000      	movs	r0, #0
 8001b98:	6de3      	ldr	r3, [r4, #92]	; 0x5c
 8001b9a:	69aa      	ldr	r2, [r5, #24]
 8001b9c:	403b      	ands	r3, r7
 8001b9e:	4313      	orrs	r3, r2
 8001ba0:	65e3      	str	r3, [r4, #92]	; 0x5c
 8001ba2:	2e01      	cmp	r6, #1
 8001ba4:	d103      	bne.n	8001bae <HAL_RCCEx_PeriphCLKConfig+0x56>
 8001ba6:	6be3      	ldr	r3, [r4, #60]	; 0x3c
 8001ba8:	4a2b      	ldr	r2, [pc, #172]	; (8001c58 <HAL_RCCEx_PeriphCLKConfig+0x100>)
 8001baa:	4013      	ands	r3, r2
 8001bac:	63e3      	str	r3, [r4, #60]	; 0x3c
 8001bae:	682a      	ldr	r2, [r5, #0]
 8001bb0:	07d3      	lsls	r3, r2, #31
 8001bb2:	d506      	bpl.n	8001bc2 <HAL_RCCEx_PeriphCLKConfig+0x6a>
 8001bb4:	2403      	movs	r4, #3
 8001bb6:	4926      	ldr	r1, [pc, #152]	; (8001c50 <HAL_RCCEx_PeriphCLKConfig+0xf8>)
 8001bb8:	6d4b      	ldr	r3, [r1, #84]	; 0x54
 8001bba:	43a3      	bics	r3, r4
 8001bbc:	68ac      	ldr	r4, [r5, #8]
 8001bbe:	4323      	orrs	r3, r4
 8001bc0:	654b      	str	r3, [r1, #84]	; 0x54
 8001bc2:	0653      	lsls	r3, r2, #25
 8001bc4:	d506      	bpl.n	8001bd4 <HAL_RCCEx_PeriphCLKConfig+0x7c>
 8001bc6:	4922      	ldr	r1, [pc, #136]	; (8001c50 <HAL_RCCEx_PeriphCLKConfig+0xf8>)
 8001bc8:	4c24      	ldr	r4, [pc, #144]	; (8001c5c <HAL_RCCEx_PeriphCLKConfig+0x104>)
 8001bca:	6d4b      	ldr	r3, [r1, #84]	; 0x54
 8001bcc:	4023      	ands	r3, r4
 8001bce:	68ec      	ldr	r4, [r5, #12]
 8001bd0:	4323      	orrs	r3, r4
 8001bd2:	654b      	str	r3, [r1, #84]	; 0x54
 8001bd4:	0453      	lsls	r3, r2, #17
 8001bd6:	d506      	bpl.n	8001be6 <HAL_RCCEx_PeriphCLKConfig+0x8e>
 8001bd8:	491d      	ldr	r1, [pc, #116]	; (8001c50 <HAL_RCCEx_PeriphCLKConfig+0xf8>)
 8001bda:	696c      	ldr	r4, [r5, #20]
 8001bdc:	6d4b      	ldr	r3, [r1, #84]	; 0x54
 8001bde:	009b      	lsls	r3, r3, #2
 8001be0:	089b      	lsrs	r3, r3, #2
 8001be2:	4323      	orrs	r3, r4
 8001be4:	654b      	str	r3, [r1, #84]	; 0x54
 8001be6:	0513      	lsls	r3, r2, #20
 8001be8:	d506      	bpl.n	8001bf8 <HAL_RCCEx_PeriphCLKConfig+0xa0>
 8001bea:	4919      	ldr	r1, [pc, #100]	; (8001c50 <HAL_RCCEx_PeriphCLKConfig+0xf8>)
 8001bec:	4c1c      	ldr	r4, [pc, #112]	; (8001c60 <HAL_RCCEx_PeriphCLKConfig+0x108>)
 8001bee:	6d4b      	ldr	r3, [r1, #84]	; 0x54
 8001bf0:	4023      	ands	r3, r4
 8001bf2:	692c      	ldr	r4, [r5, #16]
 8001bf4:	4323      	orrs	r3, r4
 8001bf6:	654b      	str	r3, [r1, #84]	; 0x54
 8001bf8:	2a00      	cmp	r2, #0
 8001bfa:	da06      	bge.n	8001c0a <HAL_RCCEx_PeriphCLKConfig+0xb2>
 8001bfc:	21e0      	movs	r1, #224	; 0xe0
 8001bfe:	4a14      	ldr	r2, [pc, #80]	; (8001c50 <HAL_RCCEx_PeriphCLKConfig+0xf8>)
 8001c00:	6813      	ldr	r3, [r2, #0]
 8001c02:	438b      	bics	r3, r1
 8001c04:	6869      	ldr	r1, [r5, #4]
 8001c06:	430b      	orrs	r3, r1
 8001c08:	6013      	str	r3, [r2, #0]
 8001c0a:	b005      	add	sp, #20
 8001c0c:	bdf0      	pop	{r4, r5, r6, r7, pc}
 8001c0e:	4288      	cmp	r0, r1
 8001c10:	d0c1      	beq.n	8001b96 <HAL_RCCEx_PeriphCLKConfig+0x3e>
 8001c12:	2280      	movs	r2, #128	; 0x80
 8001c14:	6de3      	ldr	r3, [r4, #92]	; 0x5c
 8001c16:	6de0      	ldr	r0, [r4, #92]	; 0x5c
 8001c18:	0019      	movs	r1, r3
 8001c1a:	0252      	lsls	r2, r2, #9
 8001c1c:	4302      	orrs	r2, r0
 8001c1e:	65e2      	str	r2, [r4, #92]	; 0x5c
 8001c20:	6de2      	ldr	r2, [r4, #92]	; 0x5c
 8001c22:	4810      	ldr	r0, [pc, #64]	; (8001c64 <HAL_RCCEx_PeriphCLKConfig+0x10c>)
 8001c24:	4039      	ands	r1, r7
 8001c26:	4002      	ands	r2, r0
 8001c28:	65e2      	str	r2, [r4, #92]	; 0x5c
 8001c2a:	65e1      	str	r1, [r4, #92]	; 0x5c
 8001c2c:	07db      	lsls	r3, r3, #31
 8001c2e:	d5b2      	bpl.n	8001b96 <HAL_RCCEx_PeriphCLKConfig+0x3e>
 8001c30:	f7ff f87e 	bl	8000d30 <HAL_GetTick>
 8001c34:	9001      	str	r0, [sp, #4]
 8001c36:	2202      	movs	r2, #2
 8001c38:	6de3      	ldr	r3, [r4, #92]	; 0x5c
 8001c3a:	4213      	tst	r3, r2
 8001c3c:	d1ab      	bne.n	8001b96 <HAL_RCCEx_PeriphCLKConfig+0x3e>
 8001c3e:	f7ff f877 	bl	8000d30 <HAL_GetTick>
 8001c42:	9b01      	ldr	r3, [sp, #4]
 8001c44:	1ac0      	subs	r0, r0, r3
 8001c46:	4b08      	ldr	r3, [pc, #32]	; (8001c68 <HAL_RCCEx_PeriphCLKConfig+0x110>)
 8001c48:	4298      	cmp	r0, r3
 8001c4a:	d9f4      	bls.n	8001c36 <HAL_RCCEx_PeriphCLKConfig+0xde>
 8001c4c:	2003      	movs	r0, #3
 8001c4e:	e7a8      	b.n	8001ba2 <HAL_RCCEx_PeriphCLKConfig+0x4a>
 8001c50:	40021000 	.word	0x40021000
 8001c54:	fffffcff 	.word	0xfffffcff
 8001c58:	efffffff 	.word	0xefffffff
 8001c5c:	ffffcfff 	.word	0xffffcfff
 8001c60:	ffff3fff 	.word	0xffff3fff
 8001c64:	fffeffff 	.word	0xfffeffff
 8001c68:	00001388 	.word	0x00001388

08001c6c <TIM_OC1_SetConfig>:
 8001c6c:	b570      	push	{r4, r5, r6, lr}
 8001c6e:	2401      	movs	r4, #1
 8001c70:	6a03      	ldr	r3, [r0, #32]
 8001c72:	6a02      	ldr	r2, [r0, #32]
 8001c74:	43a2      	bics	r2, r4
 8001c76:	6202      	str	r2, [r0, #32]
 8001c78:	6844      	ldr	r4, [r0, #4]
 8001c7a:	4a16      	ldr	r2, [pc, #88]	; (8001cd4 <TIM_OC1_SetConfig+0x68>)
 8001c7c:	6985      	ldr	r5, [r0, #24]
 8001c7e:	4015      	ands	r5, r2
 8001c80:	680a      	ldr	r2, [r1, #0]
 8001c82:	4315      	orrs	r5, r2
 8001c84:	2202      	movs	r2, #2
 8001c86:	4393      	bics	r3, r2
 8001c88:	688a      	ldr	r2, [r1, #8]
 8001c8a:	4313      	orrs	r3, r2
 8001c8c:	4a12      	ldr	r2, [pc, #72]	; (8001cd8 <TIM_OC1_SetConfig+0x6c>)
 8001c8e:	4290      	cmp	r0, r2
 8001c90:	d005      	beq.n	8001c9e <TIM_OC1_SetConfig+0x32>
 8001c92:	4e12      	ldr	r6, [pc, #72]	; (8001cdc <TIM_OC1_SetConfig+0x70>)
 8001c94:	42b0      	cmp	r0, r6
 8001c96:	d002      	beq.n	8001c9e <TIM_OC1_SetConfig+0x32>
 8001c98:	4e11      	ldr	r6, [pc, #68]	; (8001ce0 <TIM_OC1_SetConfig+0x74>)
 8001c9a:	42b0      	cmp	r0, r6
 8001c9c:	d113      	bne.n	8001cc6 <TIM_OC1_SetConfig+0x5a>
 8001c9e:	2608      	movs	r6, #8
 8001ca0:	43b3      	bics	r3, r6
 8001ca2:	68ce      	ldr	r6, [r1, #12]
 8001ca4:	4333      	orrs	r3, r6
 8001ca6:	2604      	movs	r6, #4
 8001ca8:	43b3      	bics	r3, r6
 8001caa:	4290      	cmp	r0, r2
 8001cac:	d005      	beq.n	8001cba <TIM_OC1_SetConfig+0x4e>
 8001cae:	4a0b      	ldr	r2, [pc, #44]	; (8001cdc <TIM_OC1_SetConfig+0x70>)
 8001cb0:	4290      	cmp	r0, r2
 8001cb2:	d002      	beq.n	8001cba <TIM_OC1_SetConfig+0x4e>
 8001cb4:	4a0a      	ldr	r2, [pc, #40]	; (8001ce0 <TIM_OC1_SetConfig+0x74>)
 8001cb6:	4290      	cmp	r0, r2
 8001cb8:	d105      	bne.n	8001cc6 <TIM_OC1_SetConfig+0x5a>
 8001cba:	4a0a      	ldr	r2, [pc, #40]	; (8001ce4 <TIM_OC1_SetConfig+0x78>)
 8001cbc:	698e      	ldr	r6, [r1, #24]
 8001cbe:	4022      	ands	r2, r4
 8001cc0:	694c      	ldr	r4, [r1, #20]
 8001cc2:	4334      	orrs	r4, r6
 8001cc4:	4314      	orrs	r4, r2
 8001cc6:	684a      	ldr	r2, [r1, #4]
 8001cc8:	6044      	str	r4, [r0, #4]
 8001cca:	6185      	str	r5, [r0, #24]
 8001ccc:	6342      	str	r2, [r0, #52]	; 0x34
 8001cce:	6203      	str	r3, [r0, #32]
 8001cd0:	bd70      	pop	{r4, r5, r6, pc}
 8001cd2:	46c0      	nop			; (mov r8, r8)
 8001cd4:	fffeff8c 	.word	0xfffeff8c
 8001cd8:	40012c00 	.word	0x40012c00
 8001cdc:	40014400 	.word	0x40014400
 8001ce0:	40014800 	.word	0x40014800
 8001ce4:	fffffcff 	.word	0xfffffcff

08001ce8 <TIM_OC3_SetConfig>:
 8001ce8:	b570      	push	{r4, r5, r6, lr}
 8001cea:	4a17      	ldr	r2, [pc, #92]	; (8001d48 <TIM_OC3_SetConfig+0x60>)
 8001cec:	6a05      	ldr	r5, [r0, #32]
 8001cee:	6a03      	ldr	r3, [r0, #32]
 8001cf0:	4013      	ands	r3, r2
 8001cf2:	6203      	str	r3, [r0, #32]
 8001cf4:	6842      	ldr	r2, [r0, #4]
 8001cf6:	4b15      	ldr	r3, [pc, #84]	; (8001d4c <TIM_OC3_SetConfig+0x64>)
 8001cf8:	69c4      	ldr	r4, [r0, #28]
 8001cfa:	401c      	ands	r4, r3
 8001cfc:	680b      	ldr	r3, [r1, #0]
 8001cfe:	431c      	orrs	r4, r3
 8001d00:	4b13      	ldr	r3, [pc, #76]	; (8001d50 <TIM_OC3_SetConfig+0x68>)
 8001d02:	401d      	ands	r5, r3
 8001d04:	688b      	ldr	r3, [r1, #8]
 8001d06:	021b      	lsls	r3, r3, #8
 8001d08:	432b      	orrs	r3, r5
 8001d0a:	4d12      	ldr	r5, [pc, #72]	; (8001d54 <TIM_OC3_SetConfig+0x6c>)
 8001d0c:	42a8      	cmp	r0, r5
 8001d0e:	d10e      	bne.n	8001d2e <TIM_OC3_SetConfig+0x46>
 8001d10:	4d11      	ldr	r5, [pc, #68]	; (8001d58 <TIM_OC3_SetConfig+0x70>)
 8001d12:	401d      	ands	r5, r3
 8001d14:	68cb      	ldr	r3, [r1, #12]
 8001d16:	021b      	lsls	r3, r3, #8
 8001d18:	432b      	orrs	r3, r5
 8001d1a:	4d10      	ldr	r5, [pc, #64]	; (8001d5c <TIM_OC3_SetConfig+0x74>)
 8001d1c:	402b      	ands	r3, r5
 8001d1e:	4d10      	ldr	r5, [pc, #64]	; (8001d60 <TIM_OC3_SetConfig+0x78>)
 8001d20:	694e      	ldr	r6, [r1, #20]
 8001d22:	4015      	ands	r5, r2
 8001d24:	698a      	ldr	r2, [r1, #24]
 8001d26:	4332      	orrs	r2, r6
 8001d28:	0112      	lsls	r2, r2, #4
 8001d2a:	432a      	orrs	r2, r5
 8001d2c:	e005      	b.n	8001d3a <TIM_OC3_SetConfig+0x52>
 8001d2e:	4d0d      	ldr	r5, [pc, #52]	; (8001d64 <TIM_OC3_SetConfig+0x7c>)
 8001d30:	42a8      	cmp	r0, r5
 8001d32:	d0f4      	beq.n	8001d1e <TIM_OC3_SetConfig+0x36>
 8001d34:	4d0c      	ldr	r5, [pc, #48]	; (8001d68 <TIM_OC3_SetConfig+0x80>)
 8001d36:	42a8      	cmp	r0, r5
 8001d38:	d0f1      	beq.n	8001d1e <TIM_OC3_SetConfig+0x36>
 8001d3a:	6042      	str	r2, [r0, #4]
 8001d3c:	684a      	ldr	r2, [r1, #4]
 8001d3e:	61c4      	str	r4, [r0, #28]
 8001d40:	63c2      	str	r2, [r0, #60]	; 0x3c
 8001d42:	6203      	str	r3, [r0, #32]
 8001d44:	bd70      	pop	{r4, r5, r6, pc}
 8001d46:	46c0      	nop			; (mov r8, r8)
 8001d48:	fffffeff 	.word	0xfffffeff
 8001d4c:	fffeff8c 	.word	0xfffeff8c
 8001d50:	fffffdff 	.word	0xfffffdff
 8001d54:	40012c00 	.word	0x40012c00
 8001d58:	fffff7ff 	.word	0xfffff7ff
 8001d5c:	fffffbff 	.word	0xfffffbff
 8001d60:	ffffcfff 	.word	0xffffcfff
 8001d64:	40014400 	.word	0x40014400
 8001d68:	40014800 	.word	0x40014800

08001d6c <TIM_OC4_SetConfig>:
 8001d6c:	b530      	push	{r4, r5, lr}
 8001d6e:	4a12      	ldr	r2, [pc, #72]	; (8001db8 <TIM_OC4_SetConfig+0x4c>)
 8001d70:	6a04      	ldr	r4, [r0, #32]
 8001d72:	6a03      	ldr	r3, [r0, #32]
 8001d74:	4d11      	ldr	r5, [pc, #68]	; (8001dbc <TIM_OC4_SetConfig+0x50>)
 8001d76:	4013      	ands	r3, r2
 8001d78:	6203      	str	r3, [r0, #32]
 8001d7a:	6843      	ldr	r3, [r0, #4]
 8001d7c:	69c2      	ldr	r2, [r0, #28]
 8001d7e:	402a      	ands	r2, r5
 8001d80:	680d      	ldr	r5, [r1, #0]
 8001d82:	022d      	lsls	r5, r5, #8
 8001d84:	4315      	orrs	r5, r2
 8001d86:	4a0e      	ldr	r2, [pc, #56]	; (8001dc0 <TIM_OC4_SetConfig+0x54>)
 8001d88:	4014      	ands	r4, r2
 8001d8a:	688a      	ldr	r2, [r1, #8]
 8001d8c:	0312      	lsls	r2, r2, #12
 8001d8e:	4322      	orrs	r2, r4
 8001d90:	4c0c      	ldr	r4, [pc, #48]	; (8001dc4 <TIM_OC4_SetConfig+0x58>)
 8001d92:	42a0      	cmp	r0, r4
 8001d94:	d005      	beq.n	8001da2 <TIM_OC4_SetConfig+0x36>
 8001d96:	4c0c      	ldr	r4, [pc, #48]	; (8001dc8 <TIM_OC4_SetConfig+0x5c>)
 8001d98:	42a0      	cmp	r0, r4
 8001d9a:	d002      	beq.n	8001da2 <TIM_OC4_SetConfig+0x36>
 8001d9c:	4c0b      	ldr	r4, [pc, #44]	; (8001dcc <TIM_OC4_SetConfig+0x60>)
 8001d9e:	42a0      	cmp	r0, r4
 8001da0:	d104      	bne.n	8001dac <TIM_OC4_SetConfig+0x40>
 8001da2:	4c0b      	ldr	r4, [pc, #44]	; (8001dd0 <TIM_OC4_SetConfig+0x64>)
 8001da4:	401c      	ands	r4, r3
 8001da6:	694b      	ldr	r3, [r1, #20]
 8001da8:	019b      	lsls	r3, r3, #6
 8001daa:	4323      	orrs	r3, r4
 8001dac:	6043      	str	r3, [r0, #4]
 8001dae:	684b      	ldr	r3, [r1, #4]
 8001db0:	61c5      	str	r5, [r0, #28]
 8001db2:	6403      	str	r3, [r0, #64]	; 0x40
 8001db4:	6202      	str	r2, [r0, #32]
 8001db6:	bd30      	pop	{r4, r5, pc}
 8001db8:	ffffefff 	.word	0xffffefff
 8001dbc:	feff8cff 	.word	0xfeff8cff
 8001dc0:	ffffdfff 	.word	0xffffdfff
 8001dc4:	40012c00 	.word	0x40012c00
 8001dc8:	40014400 	.word	0x40014400
 8001dcc:	40014800 	.word	0x40014800
 8001dd0:	ffffbfff 	.word	0xffffbfff

08001dd4 <TIM_OC5_SetConfig>:
 8001dd4:	b570      	push	{r4, r5, r6, lr}
 8001dd6:	6a06      	ldr	r6, [r0, #32]
 8001dd8:	4c10      	ldr	r4, [pc, #64]	; (8001e1c <TIM_OC5_SetConfig+0x48>)
 8001dda:	6a03      	ldr	r3, [r0, #32]
 8001ddc:	4a10      	ldr	r2, [pc, #64]	; (8001e20 <TIM_OC5_SetConfig+0x4c>)
 8001dde:	4023      	ands	r3, r4
 8001de0:	6203      	str	r3, [r0, #32]
 8001de2:	6843      	ldr	r3, [r0, #4]
 8001de4:	6d45      	ldr	r5, [r0, #84]	; 0x54
 8001de6:	4015      	ands	r5, r2
 8001de8:	680a      	ldr	r2, [r1, #0]
 8001dea:	4315      	orrs	r5, r2
 8001dec:	4a0d      	ldr	r2, [pc, #52]	; (8001e24 <TIM_OC5_SetConfig+0x50>)
 8001dee:	4016      	ands	r6, r2
 8001df0:	688a      	ldr	r2, [r1, #8]
 8001df2:	0412      	lsls	r2, r2, #16
 8001df4:	4332      	orrs	r2, r6
 8001df6:	4e0c      	ldr	r6, [pc, #48]	; (8001e28 <TIM_OC5_SetConfig+0x54>)
 8001df8:	42b0      	cmp	r0, r6
 8001dfa:	d005      	beq.n	8001e08 <TIM_OC5_SetConfig+0x34>
 8001dfc:	4e0b      	ldr	r6, [pc, #44]	; (8001e2c <TIM_OC5_SetConfig+0x58>)
 8001dfe:	42b0      	cmp	r0, r6
 8001e00:	d002      	beq.n	8001e08 <TIM_OC5_SetConfig+0x34>
 8001e02:	4e0b      	ldr	r6, [pc, #44]	; (8001e30 <TIM_OC5_SetConfig+0x5c>)
 8001e04:	42b0      	cmp	r0, r6
 8001e06:	d103      	bne.n	8001e10 <TIM_OC5_SetConfig+0x3c>
 8001e08:	401c      	ands	r4, r3
 8001e0a:	694b      	ldr	r3, [r1, #20]
 8001e0c:	021b      	lsls	r3, r3, #8
 8001e0e:	4323      	orrs	r3, r4
 8001e10:	6043      	str	r3, [r0, #4]
 8001e12:	684b      	ldr	r3, [r1, #4]
 8001e14:	6545      	str	r5, [r0, #84]	; 0x54
 8001e16:	6583      	str	r3, [r0, #88]	; 0x58
 8001e18:	6202      	str	r2, [r0, #32]
 8001e1a:	bd70      	pop	{r4, r5, r6, pc}
 8001e1c:	fffeffff 	.word	0xfffeffff
 8001e20:	fffeff8f 	.word	0xfffeff8f
 8001e24:	fffdffff 	.word	0xfffdffff
 8001e28:	40012c00 	.word	0x40012c00
 8001e2c:	40014400 	.word	0x40014400
 8001e30:	40014800 	.word	0x40014800

08001e34 <TIM_OC6_SetConfig>:
 8001e34:	b530      	push	{r4, r5, lr}
 8001e36:	4a12      	ldr	r2, [pc, #72]	; (8001e80 <TIM_OC6_SetConfig+0x4c>)
 8001e38:	6a04      	ldr	r4, [r0, #32]
 8001e3a:	6a03      	ldr	r3, [r0, #32]
 8001e3c:	4d11      	ldr	r5, [pc, #68]	; (8001e84 <TIM_OC6_SetConfig+0x50>)
 8001e3e:	4013      	ands	r3, r2
 8001e40:	6203      	str	r3, [r0, #32]
 8001e42:	6843      	ldr	r3, [r0, #4]
 8001e44:	6d42      	ldr	r2, [r0, #84]	; 0x54
 8001e46:	402a      	ands	r2, r5
 8001e48:	680d      	ldr	r5, [r1, #0]
 8001e4a:	022d      	lsls	r5, r5, #8
 8001e4c:	4315      	orrs	r5, r2
 8001e4e:	4a0e      	ldr	r2, [pc, #56]	; (8001e88 <TIM_OC6_SetConfig+0x54>)
 8001e50:	4014      	ands	r4, r2
 8001e52:	688a      	ldr	r2, [r1, #8]
 8001e54:	0512      	lsls	r2, r2, #20
 8001e56:	4322      	orrs	r2, r4
 8001e58:	4c0c      	ldr	r4, [pc, #48]	; (8001e8c <TIM_OC6_SetConfig+0x58>)
 8001e5a:	42a0      	cmp	r0, r4
 8001e5c:	d005      	beq.n	8001e6a <TIM_OC6_SetConfig+0x36>
 8001e5e:	4c0c      	ldr	r4, [pc, #48]	; (8001e90 <TIM_OC6_SetConfig+0x5c>)
 8001e60:	42a0      	cmp	r0, r4
 8001e62:	d002      	beq.n	8001e6a <TIM_OC6_SetConfig+0x36>
 8001e64:	4c0b      	ldr	r4, [pc, #44]	; (8001e94 <TIM_OC6_SetConfig+0x60>)
 8001e66:	42a0      	cmp	r0, r4
 8001e68:	d104      	bne.n	8001e74 <TIM_OC6_SetConfig+0x40>
 8001e6a:	4c0b      	ldr	r4, [pc, #44]	; (8001e98 <TIM_OC6_SetConfig+0x64>)
 8001e6c:	401c      	ands	r4, r3
 8001e6e:	694b      	ldr	r3, [r1, #20]
 8001e70:	029b      	lsls	r3, r3, #10
 8001e72:	4323      	orrs	r3, r4
 8001e74:	6043      	str	r3, [r0, #4]
 8001e76:	684b      	ldr	r3, [r1, #4]
 8001e78:	6545      	str	r5, [r0, #84]	; 0x54
 8001e7a:	65c3      	str	r3, [r0, #92]	; 0x5c
 8001e7c:	6202      	str	r2, [r0, #32]
 8001e7e:	bd30      	pop	{r4, r5, pc}
 8001e80:	ffefffff 	.word	0xffefffff
 8001e84:	feff8fff 	.word	0xfeff8fff
 8001e88:	ffdfffff 	.word	0xffdfffff
 8001e8c:	40012c00 	.word	0x40012c00
 8001e90:	40014400 	.word	0x40014400
 8001e94:	40014800 	.word	0x40014800
 8001e98:	fffbffff 	.word	0xfffbffff

08001e9c <HAL_TIM_Base_Start_IT>:
 8001e9c:	0002      	movs	r2, r0
 8001e9e:	0003      	movs	r3, r0
 8001ea0:	2001      	movs	r0, #1
 8001ea2:	323d      	adds	r2, #61	; 0x3d
 8001ea4:	7811      	ldrb	r1, [r2, #0]
 8001ea6:	4281      	cmp	r1, r0
 8001ea8:	d118      	bne.n	8001edc <HAL_TIM_Base_Start_IT+0x40>
 8001eaa:	2102      	movs	r1, #2
 8001eac:	7011      	strb	r1, [r2, #0]
 8001eae:	681b      	ldr	r3, [r3, #0]
 8001eb0:	68da      	ldr	r2, [r3, #12]
 8001eb2:	4302      	orrs	r2, r0
 8001eb4:	60da      	str	r2, [r3, #12]
 8001eb6:	4a0c      	ldr	r2, [pc, #48]	; (8001ee8 <HAL_TIM_Base_Start_IT+0x4c>)
 8001eb8:	4293      	cmp	r3, r2
 8001eba:	d002      	beq.n	8001ec2 <HAL_TIM_Base_Start_IT+0x26>
 8001ebc:	4a0b      	ldr	r2, [pc, #44]	; (8001eec <HAL_TIM_Base_Start_IT+0x50>)
 8001ebe:	4293      	cmp	r3, r2
 8001ec0:	d10d      	bne.n	8001ede <HAL_TIM_Base_Start_IT+0x42>
 8001ec2:	689a      	ldr	r2, [r3, #8]
 8001ec4:	490a      	ldr	r1, [pc, #40]	; (8001ef0 <HAL_TIM_Base_Start_IT+0x54>)
 8001ec6:	2000      	movs	r0, #0
 8001ec8:	400a      	ands	r2, r1
 8001eca:	2a06      	cmp	r2, #6
 8001ecc:	d006      	beq.n	8001edc <HAL_TIM_Base_Start_IT+0x40>
 8001ece:	3907      	subs	r1, #7
 8001ed0:	428a      	cmp	r2, r1
 8001ed2:	d003      	beq.n	8001edc <HAL_TIM_Base_Start_IT+0x40>
 8001ed4:	2201      	movs	r2, #1
 8001ed6:	6819      	ldr	r1, [r3, #0]
 8001ed8:	430a      	orrs	r2, r1
 8001eda:	601a      	str	r2, [r3, #0]
 8001edc:	4770      	bx	lr
 8001ede:	681a      	ldr	r2, [r3, #0]
 8001ee0:	4302      	orrs	r2, r0
 8001ee2:	601a      	str	r2, [r3, #0]
 8001ee4:	2000      	movs	r0, #0
 8001ee6:	e7f9      	b.n	8001edc <HAL_TIM_Base_Start_IT+0x40>
 8001ee8:	40012c00 	.word	0x40012c00
 8001eec:	40000400 	.word	0x40000400
 8001ef0:	00010007 	.word	0x00010007

08001ef4 <HAL_TIM_OC_DelayElapsedCallback>:
 8001ef4:	4770      	bx	lr

08001ef6 <HAL_TIM_IC_CaptureCallback>:
 8001ef6:	4770      	bx	lr

08001ef8 <HAL_TIM_PWM_PulseFinishedCallback>:
 8001ef8:	4770      	bx	lr

08001efa <HAL_TIM_TriggerCallback>:
 8001efa:	4770      	bx	lr

08001efc <HAL_TIM_IRQHandler>:
 8001efc:	2202      	movs	r2, #2
 8001efe:	6803      	ldr	r3, [r0, #0]
 8001f00:	b570      	push	{r4, r5, r6, lr}
 8001f02:	68dd      	ldr	r5, [r3, #12]
 8001f04:	691e      	ldr	r6, [r3, #16]
 8001f06:	0004      	movs	r4, r0
 8001f08:	4216      	tst	r6, r2
 8001f0a:	d00d      	beq.n	8001f28 <HAL_TIM_IRQHandler+0x2c>
 8001f0c:	4215      	tst	r5, r2
 8001f0e:	d00b      	beq.n	8001f28 <HAL_TIM_IRQHandler+0x2c>
 8001f10:	3a05      	subs	r2, #5
 8001f12:	611a      	str	r2, [r3, #16]
 8001f14:	3204      	adds	r2, #4
 8001f16:	7702      	strb	r2, [r0, #28]
 8001f18:	699b      	ldr	r3, [r3, #24]
 8001f1a:	079b      	lsls	r3, r3, #30
 8001f1c:	d100      	bne.n	8001f20 <HAL_TIM_IRQHandler+0x24>
 8001f1e:	e07c      	b.n	800201a <HAL_TIM_IRQHandler+0x11e>
 8001f20:	f7ff ffe9 	bl	8001ef6 <HAL_TIM_IC_CaptureCallback>
 8001f24:	2300      	movs	r3, #0
 8001f26:	7723      	strb	r3, [r4, #28]
 8001f28:	2304      	movs	r3, #4
 8001f2a:	421e      	tst	r6, r3
 8001f2c:	d012      	beq.n	8001f54 <HAL_TIM_IRQHandler+0x58>
 8001f2e:	421d      	tst	r5, r3
 8001f30:	d010      	beq.n	8001f54 <HAL_TIM_IRQHandler+0x58>
 8001f32:	2205      	movs	r2, #5
 8001f34:	6823      	ldr	r3, [r4, #0]
 8001f36:	4252      	negs	r2, r2
 8001f38:	611a      	str	r2, [r3, #16]
 8001f3a:	3207      	adds	r2, #7
 8001f3c:	7722      	strb	r2, [r4, #28]
 8001f3e:	699a      	ldr	r2, [r3, #24]
 8001f40:	23c0      	movs	r3, #192	; 0xc0
 8001f42:	009b      	lsls	r3, r3, #2
 8001f44:	0020      	movs	r0, r4
 8001f46:	421a      	tst	r2, r3
 8001f48:	d100      	bne.n	8001f4c <HAL_TIM_IRQHandler+0x50>
 8001f4a:	e06c      	b.n	8002026 <HAL_TIM_IRQHandler+0x12a>
 8001f4c:	f7ff ffd3 	bl	8001ef6 <HAL_TIM_IC_CaptureCallback>
 8001f50:	2300      	movs	r3, #0
 8001f52:	7723      	strb	r3, [r4, #28]
 8001f54:	2308      	movs	r3, #8
 8001f56:	421e      	tst	r6, r3
 8001f58:	d00f      	beq.n	8001f7a <HAL_TIM_IRQHandler+0x7e>
 8001f5a:	421d      	tst	r5, r3
 8001f5c:	d00d      	beq.n	8001f7a <HAL_TIM_IRQHandler+0x7e>
 8001f5e:	2209      	movs	r2, #9
 8001f60:	6823      	ldr	r3, [r4, #0]
 8001f62:	4252      	negs	r2, r2
 8001f64:	611a      	str	r2, [r3, #16]
 8001f66:	320d      	adds	r2, #13
 8001f68:	7722      	strb	r2, [r4, #28]
 8001f6a:	69db      	ldr	r3, [r3, #28]
 8001f6c:	0020      	movs	r0, r4
 8001f6e:	079b      	lsls	r3, r3, #30
 8001f70:	d05f      	beq.n	8002032 <HAL_TIM_IRQHandler+0x136>
 8001f72:	f7ff ffc0 	bl	8001ef6 <HAL_TIM_IC_CaptureCallback>
 8001f76:	2300      	movs	r3, #0
 8001f78:	7723      	strb	r3, [r4, #28]
 8001f7a:	2310      	movs	r3, #16
 8001f7c:	421e      	tst	r6, r3
 8001f7e:	d011      	beq.n	8001fa4 <HAL_TIM_IRQHandler+0xa8>
 8001f80:	421d      	tst	r5, r3
 8001f82:	d00f      	beq.n	8001fa4 <HAL_TIM_IRQHandler+0xa8>
 8001f84:	2211      	movs	r2, #17
 8001f86:	6823      	ldr	r3, [r4, #0]
 8001f88:	4252      	negs	r2, r2
 8001f8a:	611a      	str	r2, [r3, #16]
 8001f8c:	3219      	adds	r2, #25
 8001f8e:	7722      	strb	r2, [r4, #28]
 8001f90:	69da      	ldr	r2, [r3, #28]
 8001f92:	23c0      	movs	r3, #192	; 0xc0
 8001f94:	009b      	lsls	r3, r3, #2
 8001f96:	0020      	movs	r0, r4
 8001f98:	421a      	tst	r2, r3
 8001f9a:	d050      	beq.n	800203e <HAL_TIM_IRQHandler+0x142>
 8001f9c:	f7ff ffab 	bl	8001ef6 <HAL_TIM_IC_CaptureCallback>
 8001fa0:	2300      	movs	r3, #0
 8001fa2:	7723      	strb	r3, [r4, #28]
 8001fa4:	2301      	movs	r3, #1
 8001fa6:	421e      	tst	r6, r3
 8001fa8:	d008      	beq.n	8001fbc <HAL_TIM_IRQHandler+0xc0>
 8001faa:	421d      	tst	r5, r3
 8001fac:	d006      	beq.n	8001fbc <HAL_TIM_IRQHandler+0xc0>
 8001fae:	2202      	movs	r2, #2
 8001fb0:	6823      	ldr	r3, [r4, #0]
 8001fb2:	4252      	negs	r2, r2
 8001fb4:	0020      	movs	r0, r4
 8001fb6:	611a      	str	r2, [r3, #16]
 8001fb8:	f7fe f984 	bl	80002c4 <HAL_TIM_PeriodElapsedCallback>
 8001fbc:	2380      	movs	r3, #128	; 0x80
 8001fbe:	421e      	tst	r6, r3
 8001fc0:	d008      	beq.n	8001fd4 <HAL_TIM_IRQHandler+0xd8>
 8001fc2:	421d      	tst	r5, r3
 8001fc4:	d006      	beq.n	8001fd4 <HAL_TIM_IRQHandler+0xd8>
 8001fc6:	2281      	movs	r2, #129	; 0x81
 8001fc8:	6823      	ldr	r3, [r4, #0]
 8001fca:	4252      	negs	r2, r2
 8001fcc:	0020      	movs	r0, r4
 8001fce:	611a      	str	r2, [r3, #16]
 8001fd0:	f000 fab7 	bl	8002542 <HAL_TIMEx_BreakCallback>
 8001fd4:	05f3      	lsls	r3, r6, #23
 8001fd6:	d507      	bpl.n	8001fe8 <HAL_TIM_IRQHandler+0xec>
 8001fd8:	062b      	lsls	r3, r5, #24
 8001fda:	d505      	bpl.n	8001fe8 <HAL_TIM_IRQHandler+0xec>
 8001fdc:	6823      	ldr	r3, [r4, #0]
 8001fde:	4a1b      	ldr	r2, [pc, #108]	; (800204c <HAL_TIM_IRQHandler+0x150>)
 8001fe0:	0020      	movs	r0, r4
 8001fe2:	611a      	str	r2, [r3, #16]
 8001fe4:	f000 faae 	bl	8002544 <HAL_TIMEx_Break2Callback>
 8001fe8:	2340      	movs	r3, #64	; 0x40
 8001fea:	421e      	tst	r6, r3
 8001fec:	d008      	beq.n	8002000 <HAL_TIM_IRQHandler+0x104>
 8001fee:	421d      	tst	r5, r3
 8001ff0:	d006      	beq.n	8002000 <HAL_TIM_IRQHandler+0x104>
 8001ff2:	2241      	movs	r2, #65	; 0x41
 8001ff4:	6823      	ldr	r3, [r4, #0]
 8001ff6:	4252      	negs	r2, r2
 8001ff8:	0020      	movs	r0, r4
 8001ffa:	611a      	str	r2, [r3, #16]
 8001ffc:	f7ff ff7d 	bl	8001efa <HAL_TIM_TriggerCallback>
 8002000:	2320      	movs	r3, #32
 8002002:	421e      	tst	r6, r3
 8002004:	d008      	beq.n	8002018 <HAL_TIM_IRQHandler+0x11c>
 8002006:	421d      	tst	r5, r3
 8002008:	d006      	beq.n	8002018 <HAL_TIM_IRQHandler+0x11c>
 800200a:	2221      	movs	r2, #33	; 0x21
 800200c:	6823      	ldr	r3, [r4, #0]
 800200e:	4252      	negs	r2, r2
 8002010:	0020      	movs	r0, r4
 8002012:	611a      	str	r2, [r3, #16]
 8002014:	f000 fa94 	bl	8002540 <HAL_TIMEx_CommutCallback>
 8002018:	bd70      	pop	{r4, r5, r6, pc}
 800201a:	f7ff ff6b 	bl	8001ef4 <HAL_TIM_OC_DelayElapsedCallback>
 800201e:	0020      	movs	r0, r4
 8002020:	f7ff ff6a 	bl	8001ef8 <HAL_TIM_PWM_PulseFinishedCallback>
 8002024:	e77e      	b.n	8001f24 <HAL_TIM_IRQHandler+0x28>
 8002026:	f7ff ff65 	bl	8001ef4 <HAL_TIM_OC_DelayElapsedCallback>
 800202a:	0020      	movs	r0, r4
 800202c:	f7ff ff64 	bl	8001ef8 <HAL_TIM_PWM_PulseFinishedCallback>
 8002030:	e78e      	b.n	8001f50 <HAL_TIM_IRQHandler+0x54>
 8002032:	f7ff ff5f 	bl	8001ef4 <HAL_TIM_OC_DelayElapsedCallback>
 8002036:	0020      	movs	r0, r4
 8002038:	f7ff ff5e 	bl	8001ef8 <HAL_TIM_PWM_PulseFinishedCallback>
 800203c:	e79b      	b.n	8001f76 <HAL_TIM_IRQHandler+0x7a>
 800203e:	f7ff ff59 	bl	8001ef4 <HAL_TIM_OC_DelayElapsedCallback>
 8002042:	0020      	movs	r0, r4
 8002044:	f7ff ff58 	bl	8001ef8 <HAL_TIM_PWM_PulseFinishedCallback>
 8002048:	e7aa      	b.n	8001fa0 <HAL_TIM_IRQHandler+0xa4>
 800204a:	46c0      	nop			; (mov r8, r8)
 800204c:	fffffeff 	.word	0xfffffeff

08002050 <TIM_Base_SetConfig>:
 8002050:	4a19      	ldr	r2, [pc, #100]	; (80020b8 <TIM_Base_SetConfig+0x68>)
 8002052:	b510      	push	{r4, lr}
 8002054:	6803      	ldr	r3, [r0, #0]
 8002056:	4290      	cmp	r0, r2
 8002058:	d002      	beq.n	8002060 <TIM_Base_SetConfig+0x10>
 800205a:	4c18      	ldr	r4, [pc, #96]	; (80020bc <TIM_Base_SetConfig+0x6c>)
 800205c:	42a0      	cmp	r0, r4
 800205e:	d108      	bne.n	8002072 <TIM_Base_SetConfig+0x22>
 8002060:	2470      	movs	r4, #112	; 0x70
 8002062:	43a3      	bics	r3, r4
 8002064:	684c      	ldr	r4, [r1, #4]
 8002066:	4323      	orrs	r3, r4
 8002068:	4290      	cmp	r0, r2
 800206a:	d00b      	beq.n	8002084 <TIM_Base_SetConfig+0x34>
 800206c:	4c13      	ldr	r4, [pc, #76]	; (80020bc <TIM_Base_SetConfig+0x6c>)
 800206e:	42a0      	cmp	r0, r4
 8002070:	d008      	beq.n	8002084 <TIM_Base_SetConfig+0x34>
 8002072:	4c13      	ldr	r4, [pc, #76]	; (80020c0 <TIM_Base_SetConfig+0x70>)
 8002074:	42a0      	cmp	r0, r4
 8002076:	d005      	beq.n	8002084 <TIM_Base_SetConfig+0x34>
 8002078:	4c12      	ldr	r4, [pc, #72]	; (80020c4 <TIM_Base_SetConfig+0x74>)
 800207a:	42a0      	cmp	r0, r4
 800207c:	d002      	beq.n	8002084 <TIM_Base_SetConfig+0x34>
 800207e:	4c12      	ldr	r4, [pc, #72]	; (80020c8 <TIM_Base_SetConfig+0x78>)
 8002080:	42a0      	cmp	r0, r4
 8002082:	d103      	bne.n	800208c <TIM_Base_SetConfig+0x3c>
 8002084:	4c11      	ldr	r4, [pc, #68]	; (80020cc <TIM_Base_SetConfig+0x7c>)
 8002086:	401c      	ands	r4, r3
 8002088:	68cb      	ldr	r3, [r1, #12]
 800208a:	4323      	orrs	r3, r4
 800208c:	2480      	movs	r4, #128	; 0x80
 800208e:	43a3      	bics	r3, r4
 8002090:	694c      	ldr	r4, [r1, #20]
 8002092:	4323      	orrs	r3, r4
 8002094:	6003      	str	r3, [r0, #0]
 8002096:	688b      	ldr	r3, [r1, #8]
 8002098:	62c3      	str	r3, [r0, #44]	; 0x2c
 800209a:	680b      	ldr	r3, [r1, #0]
 800209c:	6283      	str	r3, [r0, #40]	; 0x28
 800209e:	4290      	cmp	r0, r2
 80020a0:	d005      	beq.n	80020ae <TIM_Base_SetConfig+0x5e>
 80020a2:	4b08      	ldr	r3, [pc, #32]	; (80020c4 <TIM_Base_SetConfig+0x74>)
 80020a4:	4298      	cmp	r0, r3
 80020a6:	d002      	beq.n	80020ae <TIM_Base_SetConfig+0x5e>
 80020a8:	4b07      	ldr	r3, [pc, #28]	; (80020c8 <TIM_Base_SetConfig+0x78>)
 80020aa:	4298      	cmp	r0, r3
 80020ac:	d101      	bne.n	80020b2 <TIM_Base_SetConfig+0x62>
 80020ae:	690b      	ldr	r3, [r1, #16]
 80020b0:	6303      	str	r3, [r0, #48]	; 0x30
 80020b2:	2301      	movs	r3, #1
 80020b4:	6143      	str	r3, [r0, #20]
 80020b6:	bd10      	pop	{r4, pc}
 80020b8:	40012c00 	.word	0x40012c00
 80020bc:	40000400 	.word	0x40000400
 80020c0:	40002000 	.word	0x40002000
 80020c4:	40014400 	.word	0x40014400
 80020c8:	40014800 	.word	0x40014800
 80020cc:	fffffcff 	.word	0xfffffcff

080020d0 <HAL_TIM_Base_Init>:
 80020d0:	b570      	push	{r4, r5, r6, lr}
 80020d2:	0004      	movs	r4, r0
 80020d4:	2001      	movs	r0, #1
 80020d6:	2c00      	cmp	r4, #0
 80020d8:	d023      	beq.n	8002122 <HAL_TIM_Base_Init+0x52>
 80020da:	0025      	movs	r5, r4
 80020dc:	353d      	adds	r5, #61	; 0x3d
 80020de:	782b      	ldrb	r3, [r5, #0]
 80020e0:	b2da      	uxtb	r2, r3
 80020e2:	2b00      	cmp	r3, #0
 80020e4:	d105      	bne.n	80020f2 <HAL_TIM_Base_Init+0x22>
 80020e6:	0023      	movs	r3, r4
 80020e8:	333c      	adds	r3, #60	; 0x3c
 80020ea:	0020      	movs	r0, r4
 80020ec:	701a      	strb	r2, [r3, #0]
 80020ee:	f7fe fcf5 	bl	8000adc <HAL_TIM_Base_MspInit>
 80020f2:	2302      	movs	r3, #2
 80020f4:	702b      	strb	r3, [r5, #0]
 80020f6:	6820      	ldr	r0, [r4, #0]
 80020f8:	1d21      	adds	r1, r4, #4
 80020fa:	f7ff ffa9 	bl	8002050 <TIM_Base_SetConfig>
 80020fe:	0022      	movs	r2, r4
 8002100:	2301      	movs	r3, #1
 8002102:	2000      	movs	r0, #0
 8002104:	3248      	adds	r2, #72	; 0x48
 8002106:	7013      	strb	r3, [r2, #0]
 8002108:	3447      	adds	r4, #71	; 0x47
 800210a:	3a0a      	subs	r2, #10
 800210c:	7013      	strb	r3, [r2, #0]
 800210e:	7053      	strb	r3, [r2, #1]
 8002110:	7093      	strb	r3, [r2, #2]
 8002112:	70d3      	strb	r3, [r2, #3]
 8002114:	7113      	strb	r3, [r2, #4]
 8002116:	7153      	strb	r3, [r2, #5]
 8002118:	7193      	strb	r3, [r2, #6]
 800211a:	71d3      	strb	r3, [r2, #7]
 800211c:	7213      	strb	r3, [r2, #8]
 800211e:	7023      	strb	r3, [r4, #0]
 8002120:	702b      	strb	r3, [r5, #0]
 8002122:	bd70      	pop	{r4, r5, r6, pc}

08002124 <HAL_TIM_PWM_Init>:
 8002124:	b570      	push	{r4, r5, r6, lr}
 8002126:	0004      	movs	r4, r0
 8002128:	2001      	movs	r0, #1
 800212a:	2c00      	cmp	r4, #0
 800212c:	d023      	beq.n	8002176 <HAL_TIM_PWM_Init+0x52>
 800212e:	0025      	movs	r5, r4
 8002130:	353d      	adds	r5, #61	; 0x3d
 8002132:	782b      	ldrb	r3, [r5, #0]
 8002134:	b2da      	uxtb	r2, r3
 8002136:	2b00      	cmp	r3, #0
 8002138:	d105      	bne.n	8002146 <HAL_TIM_PWM_Init+0x22>
 800213a:	0023      	movs	r3, r4
 800213c:	333c      	adds	r3, #60	; 0x3c
 800213e:	0020      	movs	r0, r4
 8002140:	701a      	strb	r2, [r3, #0]
 8002142:	f7fe fcaf 	bl	8000aa4 <HAL_TIM_PWM_MspInit>
 8002146:	2302      	movs	r3, #2
 8002148:	702b      	strb	r3, [r5, #0]
 800214a:	6820      	ldr	r0, [r4, #0]
 800214c:	1d21      	adds	r1, r4, #4
 800214e:	f7ff ff7f 	bl	8002050 <TIM_Base_SetConfig>
 8002152:	0022      	movs	r2, r4
 8002154:	2301      	movs	r3, #1
 8002156:	2000      	movs	r0, #0
 8002158:	3248      	adds	r2, #72	; 0x48
 800215a:	7013      	strb	r3, [r2, #0]
 800215c:	3447      	adds	r4, #71	; 0x47
 800215e:	3a0a      	subs	r2, #10
 8002160:	7013      	strb	r3, [r2, #0]
 8002162:	7053      	strb	r3, [r2, #1]
 8002164:	7093      	strb	r3, [r2, #2]
 8002166:	70d3      	strb	r3, [r2, #3]
 8002168:	7113      	strb	r3, [r2, #4]
 800216a:	7153      	strb	r3, [r2, #5]
 800216c:	7193      	strb	r3, [r2, #6]
 800216e:	71d3      	strb	r3, [r2, #7]
 8002170:	7213      	strb	r3, [r2, #8]
 8002172:	7023      	strb	r3, [r4, #0]
 8002174:	702b      	strb	r3, [r5, #0]
 8002176:	bd70      	pop	{r4, r5, r6, pc}

08002178 <TIM_OC2_SetConfig>:
 8002178:	2210      	movs	r2, #16
 800217a:	b570      	push	{r4, r5, r6, lr}
 800217c:	6a05      	ldr	r5, [r0, #32]
 800217e:	6a03      	ldr	r3, [r0, #32]
 8002180:	4c16      	ldr	r4, [pc, #88]	; (80021dc <TIM_OC2_SetConfig+0x64>)
 8002182:	4393      	bics	r3, r2
 8002184:	6203      	str	r3, [r0, #32]
 8002186:	6843      	ldr	r3, [r0, #4]
 8002188:	6982      	ldr	r2, [r0, #24]
 800218a:	4022      	ands	r2, r4
 800218c:	680c      	ldr	r4, [r1, #0]
 800218e:	0224      	lsls	r4, r4, #8
 8002190:	4314      	orrs	r4, r2
 8002192:	2220      	movs	r2, #32
 8002194:	4395      	bics	r5, r2
 8002196:	688a      	ldr	r2, [r1, #8]
 8002198:	0112      	lsls	r2, r2, #4
 800219a:	432a      	orrs	r2, r5
 800219c:	4d10      	ldr	r5, [pc, #64]	; (80021e0 <TIM_OC2_SetConfig+0x68>)
 800219e:	42a8      	cmp	r0, r5
 80021a0:	d10f      	bne.n	80021c2 <TIM_OC2_SetConfig+0x4a>
 80021a2:	2580      	movs	r5, #128	; 0x80
 80021a4:	43aa      	bics	r2, r5
 80021a6:	0016      	movs	r6, r2
 80021a8:	68ca      	ldr	r2, [r1, #12]
 80021aa:	3d40      	subs	r5, #64	; 0x40
 80021ac:	0112      	lsls	r2, r2, #4
 80021ae:	4332      	orrs	r2, r6
 80021b0:	43aa      	bics	r2, r5
 80021b2:	4d0c      	ldr	r5, [pc, #48]	; (80021e4 <TIM_OC2_SetConfig+0x6c>)
 80021b4:	694e      	ldr	r6, [r1, #20]
 80021b6:	401d      	ands	r5, r3
 80021b8:	698b      	ldr	r3, [r1, #24]
 80021ba:	4333      	orrs	r3, r6
 80021bc:	009b      	lsls	r3, r3, #2
 80021be:	432b      	orrs	r3, r5
 80021c0:	e005      	b.n	80021ce <TIM_OC2_SetConfig+0x56>
 80021c2:	4d09      	ldr	r5, [pc, #36]	; (80021e8 <TIM_OC2_SetConfig+0x70>)
 80021c4:	42a8      	cmp	r0, r5
 80021c6:	d0f4      	beq.n	80021b2 <TIM_OC2_SetConfig+0x3a>
 80021c8:	4d08      	ldr	r5, [pc, #32]	; (80021ec <TIM_OC2_SetConfig+0x74>)
 80021ca:	42a8      	cmp	r0, r5
 80021cc:	d0f1      	beq.n	80021b2 <TIM_OC2_SetConfig+0x3a>
 80021ce:	6043      	str	r3, [r0, #4]
 80021d0:	684b      	ldr	r3, [r1, #4]
 80021d2:	6184      	str	r4, [r0, #24]
 80021d4:	6383      	str	r3, [r0, #56]	; 0x38
 80021d6:	6202      	str	r2, [r0, #32]
 80021d8:	bd70      	pop	{r4, r5, r6, pc}
 80021da:	46c0      	nop			; (mov r8, r8)
 80021dc:	feff8cff 	.word	0xfeff8cff
 80021e0:	40012c00 	.word	0x40012c00
 80021e4:	fffff3ff 	.word	0xfffff3ff
 80021e8:	40014400 	.word	0x40014400
 80021ec:	40014800 	.word	0x40014800

080021f0 <HAL_TIM_PWM_ConfigChannel>:
 80021f0:	b5f8      	push	{r3, r4, r5, r6, r7, lr}
 80021f2:	0006      	movs	r6, r0
 80021f4:	363c      	adds	r6, #60	; 0x3c
 80021f6:	0015      	movs	r5, r2
 80021f8:	7832      	ldrb	r2, [r6, #0]
 80021fa:	0003      	movs	r3, r0
 80021fc:	000c      	movs	r4, r1
 80021fe:	2002      	movs	r0, #2
 8002200:	2a01      	cmp	r2, #1
 8002202:	d00c      	beq.n	800221e <HAL_TIM_PWM_ConfigChannel+0x2e>
 8002204:	3801      	subs	r0, #1
 8002206:	7030      	strb	r0, [r6, #0]
 8002208:	2d0c      	cmp	r5, #12
 800220a:	d053      	beq.n	80022b4 <HAL_TIM_PWM_ConfigChannel+0xc4>
 800220c:	d808      	bhi.n	8002220 <HAL_TIM_PWM_ConfigChannel+0x30>
 800220e:	2d04      	cmp	r5, #4
 8002210:	d02d      	beq.n	800226e <HAL_TIM_PWM_ConfigChannel+0x7e>
 8002212:	2d08      	cmp	r5, #8
 8002214:	d03e      	beq.n	8002294 <HAL_TIM_PWM_ConfigChannel+0xa4>
 8002216:	2d00      	cmp	r5, #0
 8002218:	d017      	beq.n	800224a <HAL_TIM_PWM_ConfigChannel+0x5a>
 800221a:	2300      	movs	r3, #0
 800221c:	7033      	strb	r3, [r6, #0]
 800221e:	bdf8      	pop	{r3, r4, r5, r6, r7, pc}
 8002220:	2d10      	cmp	r5, #16
 8002222:	d05a      	beq.n	80022da <HAL_TIM_PWM_ConfigChannel+0xea>
 8002224:	2d14      	cmp	r5, #20
 8002226:	d1f8      	bne.n	800221a <HAL_TIM_PWM_ConfigChannel+0x2a>
 8002228:	681d      	ldr	r5, [r3, #0]
 800222a:	0028      	movs	r0, r5
 800222c:	f7ff fe02 	bl	8001e34 <TIM_OC6_SetConfig>
 8002230:	2380      	movs	r3, #128	; 0x80
 8002232:	6d6a      	ldr	r2, [r5, #84]	; 0x54
 8002234:	011b      	lsls	r3, r3, #4
 8002236:	4313      	orrs	r3, r2
 8002238:	656b      	str	r3, [r5, #84]	; 0x54
 800223a:	6d6b      	ldr	r3, [r5, #84]	; 0x54
 800223c:	4a2f      	ldr	r2, [pc, #188]	; (80022fc <HAL_TIM_PWM_ConfigChannel+0x10c>)
 800223e:	4013      	ands	r3, r2
 8002240:	656b      	str	r3, [r5, #84]	; 0x54
 8002242:	6923      	ldr	r3, [r4, #16]
 8002244:	6d6a      	ldr	r2, [r5, #84]	; 0x54
 8002246:	021b      	lsls	r3, r3, #8
 8002248:	e055      	b.n	80022f6 <HAL_TIM_PWM_ConfigChannel+0x106>
 800224a:	681f      	ldr	r7, [r3, #0]
 800224c:	0038      	movs	r0, r7
 800224e:	f7ff fd0d 	bl	8001c6c <TIM_OC1_SetConfig>
 8002252:	2308      	movs	r3, #8
 8002254:	69ba      	ldr	r2, [r7, #24]
 8002256:	4313      	orrs	r3, r2
 8002258:	2204      	movs	r2, #4
 800225a:	61bb      	str	r3, [r7, #24]
 800225c:	69bb      	ldr	r3, [r7, #24]
 800225e:	4393      	bics	r3, r2
 8002260:	61bb      	str	r3, [r7, #24]
 8002262:	69bb      	ldr	r3, [r7, #24]
 8002264:	6922      	ldr	r2, [r4, #16]
 8002266:	4313      	orrs	r3, r2
 8002268:	61bb      	str	r3, [r7, #24]
 800226a:	2000      	movs	r0, #0
 800226c:	e7d5      	b.n	800221a <HAL_TIM_PWM_ConfigChannel+0x2a>
 800226e:	681d      	ldr	r5, [r3, #0]
 8002270:	0028      	movs	r0, r5
 8002272:	f7ff ff81 	bl	8002178 <TIM_OC2_SetConfig>
 8002276:	2380      	movs	r3, #128	; 0x80
 8002278:	69aa      	ldr	r2, [r5, #24]
 800227a:	011b      	lsls	r3, r3, #4
 800227c:	4313      	orrs	r3, r2
 800227e:	61ab      	str	r3, [r5, #24]
 8002280:	69ab      	ldr	r3, [r5, #24]
 8002282:	4a1e      	ldr	r2, [pc, #120]	; (80022fc <HAL_TIM_PWM_ConfigChannel+0x10c>)
 8002284:	4013      	ands	r3, r2
 8002286:	61ab      	str	r3, [r5, #24]
 8002288:	6923      	ldr	r3, [r4, #16]
 800228a:	69aa      	ldr	r2, [r5, #24]
 800228c:	021b      	lsls	r3, r3, #8
 800228e:	4313      	orrs	r3, r2
 8002290:	61ab      	str	r3, [r5, #24]
 8002292:	e7ea      	b.n	800226a <HAL_TIM_PWM_ConfigChannel+0x7a>
 8002294:	681f      	ldr	r7, [r3, #0]
 8002296:	0038      	movs	r0, r7
 8002298:	f7ff fd26 	bl	8001ce8 <TIM_OC3_SetConfig>
 800229c:	2204      	movs	r2, #4
 800229e:	69fb      	ldr	r3, [r7, #28]
 80022a0:	431d      	orrs	r5, r3
 80022a2:	61fd      	str	r5, [r7, #28]
 80022a4:	69fb      	ldr	r3, [r7, #28]
 80022a6:	4393      	bics	r3, r2
 80022a8:	61fb      	str	r3, [r7, #28]
 80022aa:	69fb      	ldr	r3, [r7, #28]
 80022ac:	6922      	ldr	r2, [r4, #16]
 80022ae:	4313      	orrs	r3, r2
 80022b0:	61fb      	str	r3, [r7, #28]
 80022b2:	e7da      	b.n	800226a <HAL_TIM_PWM_ConfigChannel+0x7a>
 80022b4:	681d      	ldr	r5, [r3, #0]
 80022b6:	0028      	movs	r0, r5
 80022b8:	f7ff fd58 	bl	8001d6c <TIM_OC4_SetConfig>
 80022bc:	2380      	movs	r3, #128	; 0x80
 80022be:	69ea      	ldr	r2, [r5, #28]
 80022c0:	011b      	lsls	r3, r3, #4
 80022c2:	4313      	orrs	r3, r2
 80022c4:	61eb      	str	r3, [r5, #28]
 80022c6:	69eb      	ldr	r3, [r5, #28]
 80022c8:	4a0c      	ldr	r2, [pc, #48]	; (80022fc <HAL_TIM_PWM_ConfigChannel+0x10c>)
 80022ca:	4013      	ands	r3, r2
 80022cc:	61eb      	str	r3, [r5, #28]
 80022ce:	6923      	ldr	r3, [r4, #16]
 80022d0:	69ea      	ldr	r2, [r5, #28]
 80022d2:	021b      	lsls	r3, r3, #8
 80022d4:	4313      	orrs	r3, r2
 80022d6:	61eb      	str	r3, [r5, #28]
 80022d8:	e7c7      	b.n	800226a <HAL_TIM_PWM_ConfigChannel+0x7a>
 80022da:	681d      	ldr	r5, [r3, #0]
 80022dc:	0028      	movs	r0, r5
 80022de:	f7ff fd79 	bl	8001dd4 <TIM_OC5_SetConfig>
 80022e2:	2308      	movs	r3, #8
 80022e4:	6d6a      	ldr	r2, [r5, #84]	; 0x54
 80022e6:	4313      	orrs	r3, r2
 80022e8:	2204      	movs	r2, #4
 80022ea:	656b      	str	r3, [r5, #84]	; 0x54
 80022ec:	6d6b      	ldr	r3, [r5, #84]	; 0x54
 80022ee:	4393      	bics	r3, r2
 80022f0:	656b      	str	r3, [r5, #84]	; 0x54
 80022f2:	6d6b      	ldr	r3, [r5, #84]	; 0x54
 80022f4:	6922      	ldr	r2, [r4, #16]
 80022f6:	4313      	orrs	r3, r2
 80022f8:	656b      	str	r3, [r5, #84]	; 0x54
 80022fa:	e7b6      	b.n	800226a <HAL_TIM_PWM_ConfigChannel+0x7a>
 80022fc:	fffffbff 	.word	0xfffffbff

08002300 <TIM_CCxChannelCmd>:
 8002300:	231f      	movs	r3, #31
 8002302:	b510      	push	{r4, lr}
 8002304:	2401      	movs	r4, #1
 8002306:	4019      	ands	r1, r3
 8002308:	408c      	lsls	r4, r1
 800230a:	408a      	lsls	r2, r1
 800230c:	6a03      	ldr	r3, [r0, #32]
 800230e:	43a3      	bics	r3, r4
 8002310:	6203      	str	r3, [r0, #32]
 8002312:	6a03      	ldr	r3, [r0, #32]
 8002314:	431a      	orrs	r2, r3
 8002316:	6202      	str	r2, [r0, #32]
 8002318:	bd10      	pop	{r4, pc}
	...

0800231c <HAL_TIM_OC_Start>:
 800231c:	0002      	movs	r2, r0
 800231e:	b510      	push	{r4, lr}
 8002320:	2908      	cmp	r1, #8
 8002322:	d02a      	beq.n	800237a <HAL_TIM_OC_Start+0x5e>
 8002324:	d814      	bhi.n	8002350 <HAL_TIM_OC_Start+0x34>
 8002326:	2900      	cmp	r1, #0
 8002328:	d019      	beq.n	800235e <HAL_TIM_OC_Start+0x42>
 800232a:	2904      	cmp	r1, #4
 800232c:	d022      	beq.n	8002374 <HAL_TIM_OC_Start+0x58>
 800232e:	0013      	movs	r3, r2
 8002330:	2001      	movs	r0, #1
 8002332:	3343      	adds	r3, #67	; 0x43
 8002334:	781b      	ldrb	r3, [r3, #0]
 8002336:	4283      	cmp	r3, r0
 8002338:	d11b      	bne.n	8002372 <HAL_TIM_OC_Start+0x56>
 800233a:	2908      	cmp	r1, #8
 800233c:	d831      	bhi.n	80023a2 <HAL_TIM_OC_Start+0x86>
 800233e:	2302      	movs	r3, #2
 8002340:	2900      	cmp	r1, #0
 8002342:	d036      	beq.n	80023b2 <HAL_TIM_OC_Start+0x96>
 8002344:	2904      	cmp	r1, #4
 8002346:	d056      	beq.n	80023f6 <HAL_TIM_OC_Start+0xda>
 8002348:	0013      	movs	r3, r2
 800234a:	2002      	movs	r0, #2
 800234c:	3343      	adds	r3, #67	; 0x43
 800234e:	e023      	b.n	8002398 <HAL_TIM_OC_Start+0x7c>
 8002350:	290c      	cmp	r1, #12
 8002352:	d023      	beq.n	800239c <HAL_TIM_OC_Start+0x80>
 8002354:	2910      	cmp	r1, #16
 8002356:	d1ea      	bne.n	800232e <HAL_TIM_OC_Start+0x12>
 8002358:	0003      	movs	r3, r0
 800235a:	3342      	adds	r3, #66	; 0x42
 800235c:	e00f      	b.n	800237e <HAL_TIM_OC_Start+0x62>
 800235e:	0003      	movs	r3, r0
 8002360:	333e      	adds	r3, #62	; 0x3e
 8002362:	781b      	ldrb	r3, [r3, #0]
 8002364:	3b01      	subs	r3, #1
 8002366:	1e58      	subs	r0, r3, #1
 8002368:	4183      	sbcs	r3, r0
 800236a:	b2db      	uxtb	r3, r3
 800236c:	2001      	movs	r0, #1
 800236e:	2b00      	cmp	r3, #0
 8002370:	d0e5      	beq.n	800233e <HAL_TIM_OC_Start+0x22>
 8002372:	bd10      	pop	{r4, pc}
 8002374:	0003      	movs	r3, r0
 8002376:	333f      	adds	r3, #63	; 0x3f
 8002378:	e7f3      	b.n	8002362 <HAL_TIM_OC_Start+0x46>
 800237a:	0003      	movs	r3, r0
 800237c:	3340      	adds	r3, #64	; 0x40
 800237e:	781b      	ldrb	r3, [r3, #0]
 8002380:	3b01      	subs	r3, #1
 8002382:	1e58      	subs	r0, r3, #1
 8002384:	4183      	sbcs	r3, r0
 8002386:	b2db      	uxtb	r3, r3
 8002388:	2001      	movs	r0, #1
 800238a:	2b00      	cmp	r3, #0
 800238c:	d1f1      	bne.n	8002372 <HAL_TIM_OC_Start+0x56>
 800238e:	2908      	cmp	r1, #8
 8002390:	d1d3      	bne.n	800233a <HAL_TIM_OC_Start+0x1e>
 8002392:	0013      	movs	r3, r2
 8002394:	2002      	movs	r0, #2
 8002396:	3340      	adds	r3, #64	; 0x40
 8002398:	7018      	strb	r0, [r3, #0]
 800239a:	e00d      	b.n	80023b8 <HAL_TIM_OC_Start+0x9c>
 800239c:	0003      	movs	r3, r0
 800239e:	3341      	adds	r3, #65	; 0x41
 80023a0:	e7ed      	b.n	800237e <HAL_TIM_OC_Start+0x62>
 80023a2:	2302      	movs	r3, #2
 80023a4:	290c      	cmp	r1, #12
 80023a6:	d029      	beq.n	80023fc <HAL_TIM_OC_Start+0xe0>
 80023a8:	2910      	cmp	r1, #16
 80023aa:	d1cd      	bne.n	8002348 <HAL_TIM_OC_Start+0x2c>
 80023ac:	0010      	movs	r0, r2
 80023ae:	3042      	adds	r0, #66	; 0x42
 80023b0:	e001      	b.n	80023b6 <HAL_TIM_OC_Start+0x9a>
 80023b2:	0010      	movs	r0, r2
 80023b4:	303e      	adds	r0, #62	; 0x3e
 80023b6:	7003      	strb	r3, [r0, #0]
 80023b8:	6814      	ldr	r4, [r2, #0]
 80023ba:	2201      	movs	r2, #1
 80023bc:	0020      	movs	r0, r4
 80023be:	f7ff ff9f 	bl	8002300 <TIM_CCxChannelCmd>
 80023c2:	4a17      	ldr	r2, [pc, #92]	; (8002420 <HAL_TIM_OC_Start+0x104>)
 80023c4:	4294      	cmp	r4, r2
 80023c6:	d01c      	beq.n	8002402 <HAL_TIM_OC_Start+0xe6>
 80023c8:	4b16      	ldr	r3, [pc, #88]	; (8002424 <HAL_TIM_OC_Start+0x108>)
 80023ca:	429c      	cmp	r4, r3
 80023cc:	d019      	beq.n	8002402 <HAL_TIM_OC_Start+0xe6>
 80023ce:	4b16      	ldr	r3, [pc, #88]	; (8002428 <HAL_TIM_OC_Start+0x10c>)
 80023d0:	429c      	cmp	r4, r3
 80023d2:	d016      	beq.n	8002402 <HAL_TIM_OC_Start+0xe6>
 80023d4:	4b15      	ldr	r3, [pc, #84]	; (800242c <HAL_TIM_OC_Start+0x110>)
 80023d6:	429c      	cmp	r4, r3
 80023d8:	d11b      	bne.n	8002412 <HAL_TIM_OC_Start+0xf6>
 80023da:	68a3      	ldr	r3, [r4, #8]
 80023dc:	4a14      	ldr	r2, [pc, #80]	; (8002430 <HAL_TIM_OC_Start+0x114>)
 80023de:	2000      	movs	r0, #0
 80023e0:	4013      	ands	r3, r2
 80023e2:	2b06      	cmp	r3, #6
 80023e4:	d0c5      	beq.n	8002372 <HAL_TIM_OC_Start+0x56>
 80023e6:	3a07      	subs	r2, #7
 80023e8:	4293      	cmp	r3, r2
 80023ea:	d0c2      	beq.n	8002372 <HAL_TIM_OC_Start+0x56>
 80023ec:	2301      	movs	r3, #1
 80023ee:	6822      	ldr	r2, [r4, #0]
 80023f0:	4313      	orrs	r3, r2
 80023f2:	6023      	str	r3, [r4, #0]
 80023f4:	e7bd      	b.n	8002372 <HAL_TIM_OC_Start+0x56>
 80023f6:	0010      	movs	r0, r2
 80023f8:	303f      	adds	r0, #63	; 0x3f
 80023fa:	e7dc      	b.n	80023b6 <HAL_TIM_OC_Start+0x9a>
 80023fc:	0010      	movs	r0, r2
 80023fe:	3041      	adds	r0, #65	; 0x41
 8002400:	e7d9      	b.n	80023b6 <HAL_TIM_OC_Start+0x9a>
 8002402:	2380      	movs	r3, #128	; 0x80
 8002404:	6c61      	ldr	r1, [r4, #68]	; 0x44
 8002406:	021b      	lsls	r3, r3, #8
 8002408:	430b      	orrs	r3, r1
 800240a:	6463      	str	r3, [r4, #68]	; 0x44
 800240c:	4294      	cmp	r4, r2
 800240e:	d1e1      	bne.n	80023d4 <HAL_TIM_OC_Start+0xb8>
 8002410:	e7e3      	b.n	80023da <HAL_TIM_OC_Start+0xbe>
 8002412:	2301      	movs	r3, #1
 8002414:	6822      	ldr	r2, [r4, #0]
 8002416:	2000      	movs	r0, #0
 8002418:	4313      	orrs	r3, r2
 800241a:	6023      	str	r3, [r4, #0]
 800241c:	e7a9      	b.n	8002372 <HAL_TIM_OC_Start+0x56>
 800241e:	46c0      	nop			; (mov r8, r8)
 8002420:	40012c00 	.word	0x40012c00
 8002424:	40014400 	.word	0x40014400
 8002428:	40014800 	.word	0x40014800
 800242c:	40000400 	.word	0x40000400
 8002430:	00010007 	.word	0x00010007

08002434 <HAL_TIM_PWM_Start>:
 8002434:	b510      	push	{r4, lr}
 8002436:	f7ff ff71 	bl	800231c <HAL_TIM_OC_Start>
 800243a:	bd10      	pop	{r4, pc}

0800243c <HAL_TIM_OC_Stop>:
 800243c:	b570      	push	{r4, r5, r6, lr}
 800243e:	6805      	ldr	r5, [r0, #0]
 8002440:	2200      	movs	r2, #0
 8002442:	0004      	movs	r4, r0
 8002444:	0028      	movs	r0, r5
 8002446:	000e      	movs	r6, r1
 8002448:	f7ff ff5a 	bl	8002300 <TIM_CCxChannelCmd>
 800244c:	4b1c      	ldr	r3, [pc, #112]	; (80024c0 <HAL_TIM_OC_Stop+0x84>)
 800244e:	4a1d      	ldr	r2, [pc, #116]	; (80024c4 <HAL_TIM_OC_Stop+0x88>)
 8002450:	429d      	cmp	r5, r3
 8002452:	d005      	beq.n	8002460 <HAL_TIM_OC_Stop+0x24>
 8002454:	4b1c      	ldr	r3, [pc, #112]	; (80024c8 <HAL_TIM_OC_Stop+0x8c>)
 8002456:	429d      	cmp	r5, r3
 8002458:	d002      	beq.n	8002460 <HAL_TIM_OC_Stop+0x24>
 800245a:	4b1c      	ldr	r3, [pc, #112]	; (80024cc <HAL_TIM_OC_Stop+0x90>)
 800245c:	429d      	cmp	r5, r3
 800245e:	d10a      	bne.n	8002476 <HAL_TIM_OC_Stop+0x3a>
 8002460:	6a2b      	ldr	r3, [r5, #32]
 8002462:	4213      	tst	r3, r2
 8002464:	d107      	bne.n	8002476 <HAL_TIM_OC_Stop+0x3a>
 8002466:	6a29      	ldr	r1, [r5, #32]
 8002468:	4b19      	ldr	r3, [pc, #100]	; (80024d0 <HAL_TIM_OC_Stop+0x94>)
 800246a:	4219      	tst	r1, r3
 800246c:	d103      	bne.n	8002476 <HAL_TIM_OC_Stop+0x3a>
 800246e:	6c6b      	ldr	r3, [r5, #68]	; 0x44
 8002470:	4918      	ldr	r1, [pc, #96]	; (80024d4 <HAL_TIM_OC_Stop+0x98>)
 8002472:	400b      	ands	r3, r1
 8002474:	646b      	str	r3, [r5, #68]	; 0x44
 8002476:	6a2b      	ldr	r3, [r5, #32]
 8002478:	4213      	tst	r3, r2
 800247a:	d107      	bne.n	800248c <HAL_TIM_OC_Stop+0x50>
 800247c:	6a2a      	ldr	r2, [r5, #32]
 800247e:	4b14      	ldr	r3, [pc, #80]	; (80024d0 <HAL_TIM_OC_Stop+0x94>)
 8002480:	421a      	tst	r2, r3
 8002482:	d103      	bne.n	800248c <HAL_TIM_OC_Stop+0x50>
 8002484:	2201      	movs	r2, #1
 8002486:	682b      	ldr	r3, [r5, #0]
 8002488:	4393      	bics	r3, r2
 800248a:	602b      	str	r3, [r5, #0]
 800248c:	2301      	movs	r3, #1
 800248e:	2e00      	cmp	r6, #0
 8002490:	d103      	bne.n	800249a <HAL_TIM_OC_Stop+0x5e>
 8002492:	343e      	adds	r4, #62	; 0x3e
 8002494:	2000      	movs	r0, #0
 8002496:	7023      	strb	r3, [r4, #0]
 8002498:	bd70      	pop	{r4, r5, r6, pc}
 800249a:	2e0c      	cmp	r6, #12
 800249c:	d00e      	beq.n	80024bc <HAL_TIM_OC_Stop+0x80>
 800249e:	d805      	bhi.n	80024ac <HAL_TIM_OC_Stop+0x70>
 80024a0:	2e04      	cmp	r6, #4
 80024a2:	d007      	beq.n	80024b4 <HAL_TIM_OC_Stop+0x78>
 80024a4:	2e08      	cmp	r6, #8
 80024a6:	d007      	beq.n	80024b8 <HAL_TIM_OC_Stop+0x7c>
 80024a8:	3443      	adds	r4, #67	; 0x43
 80024aa:	e7f3      	b.n	8002494 <HAL_TIM_OC_Stop+0x58>
 80024ac:	2e10      	cmp	r6, #16
 80024ae:	d1fb      	bne.n	80024a8 <HAL_TIM_OC_Stop+0x6c>
 80024b0:	3442      	adds	r4, #66	; 0x42
 80024b2:	e7ef      	b.n	8002494 <HAL_TIM_OC_Stop+0x58>
 80024b4:	343f      	adds	r4, #63	; 0x3f
 80024b6:	e7ed      	b.n	8002494 <HAL_TIM_OC_Stop+0x58>
 80024b8:	3440      	adds	r4, #64	; 0x40
 80024ba:	e7eb      	b.n	8002494 <HAL_TIM_OC_Stop+0x58>
 80024bc:	3441      	adds	r4, #65	; 0x41
 80024be:	e7e9      	b.n	8002494 <HAL_TIM_OC_Stop+0x58>
 80024c0:	40012c00 	.word	0x40012c00
 80024c4:	00001111 	.word	0x00001111
 80024c8:	40014400 	.word	0x40014400
 80024cc:	40014800 	.word	0x40014800
 80024d0:	00000444 	.word	0x00000444
 80024d4:	ffff7fff 	.word	0xffff7fff

080024d8 <HAL_TIM_PWM_Stop>:
 80024d8:	b510      	push	{r4, lr}
 80024da:	f7ff ffaf 	bl	800243c <HAL_TIM_OC_Stop>
 80024de:	bd10      	pop	{r4, pc}

080024e0 <HAL_TIMEx_MasterConfigSynchronization>:
 80024e0:	b5f0      	push	{r4, r5, r6, r7, lr}
 80024e2:	0004      	movs	r4, r0
 80024e4:	2202      	movs	r2, #2
 80024e6:	343c      	adds	r4, #60	; 0x3c
 80024e8:	7825      	ldrb	r5, [r4, #0]
 80024ea:	0003      	movs	r3, r0
 80024ec:	0010      	movs	r0, r2
 80024ee:	2d01      	cmp	r5, #1
 80024f0:	d01f      	beq.n	8002532 <HAL_TIMEx_MasterConfigSynchronization+0x52>
 80024f2:	001d      	movs	r5, r3
 80024f4:	353d      	adds	r5, #61	; 0x3d
 80024f6:	702a      	strb	r2, [r5, #0]
 80024f8:	681a      	ldr	r2, [r3, #0]
 80024fa:	4e0e      	ldr	r6, [pc, #56]	; (8002534 <HAL_TIMEx_MasterConfigSynchronization+0x54>)
 80024fc:	6853      	ldr	r3, [r2, #4]
 80024fe:	6890      	ldr	r0, [r2, #8]
 8002500:	42b2      	cmp	r2, r6
 8002502:	d103      	bne.n	800250c <HAL_TIMEx_MasterConfigSynchronization+0x2c>
 8002504:	4f0c      	ldr	r7, [pc, #48]	; (8002538 <HAL_TIMEx_MasterConfigSynchronization+0x58>)
 8002506:	403b      	ands	r3, r7
 8002508:	684f      	ldr	r7, [r1, #4]
 800250a:	433b      	orrs	r3, r7
 800250c:	2770      	movs	r7, #112	; 0x70
 800250e:	43bb      	bics	r3, r7
 8002510:	680f      	ldr	r7, [r1, #0]
 8002512:	433b      	orrs	r3, r7
 8002514:	6053      	str	r3, [r2, #4]
 8002516:	42b2      	cmp	r2, r6
 8002518:	d002      	beq.n	8002520 <HAL_TIMEx_MasterConfigSynchronization+0x40>
 800251a:	4b08      	ldr	r3, [pc, #32]	; (800253c <HAL_TIMEx_MasterConfigSynchronization+0x5c>)
 800251c:	429a      	cmp	r2, r3
 800251e:	d104      	bne.n	800252a <HAL_TIMEx_MasterConfigSynchronization+0x4a>
 8002520:	2380      	movs	r3, #128	; 0x80
 8002522:	4398      	bics	r0, r3
 8002524:	688b      	ldr	r3, [r1, #8]
 8002526:	4318      	orrs	r0, r3
 8002528:	6090      	str	r0, [r2, #8]
 800252a:	2301      	movs	r3, #1
 800252c:	2000      	movs	r0, #0
 800252e:	702b      	strb	r3, [r5, #0]
 8002530:	7020      	strb	r0, [r4, #0]
 8002532:	bdf0      	pop	{r4, r5, r6, r7, pc}
 8002534:	40012c00 	.word	0x40012c00
 8002538:	ff0fffff 	.word	0xff0fffff
 800253c:	40000400 	.word	0x40000400

08002540 <HAL_TIMEx_CommutCallback>:
 8002540:	4770      	bx	lr

08002542 <HAL_TIMEx_BreakCallback>:
 8002542:	4770      	bx	lr

08002544 <HAL_TIMEx_Break2Callback>:
 8002544:	4770      	bx	lr
	...

08002548 <UART_EndRxTransfer>:
 8002548:	b530      	push	{r4, r5, lr}
 800254a:	f3ef 8410 	mrs	r4, PRIMASK
 800254e:	2201      	movs	r2, #1
 8002550:	f382 8810 	msr	PRIMASK, r2
 8002554:	6801      	ldr	r1, [r0, #0]
 8002556:	4d13      	ldr	r5, [pc, #76]	; (80025a4 <UART_EndRxTransfer+0x5c>)
 8002558:	680b      	ldr	r3, [r1, #0]
 800255a:	402b      	ands	r3, r5
 800255c:	600b      	str	r3, [r1, #0]
 800255e:	f384 8810 	msr	PRIMASK, r4
 8002562:	f3ef 8110 	mrs	r1, PRIMASK
 8002566:	f382 8810 	msr	PRIMASK, r2
 800256a:	6802      	ldr	r2, [r0, #0]
 800256c:	4c0e      	ldr	r4, [pc, #56]	; (80025a8 <UART_EndRxTransfer+0x60>)
 800256e:	6893      	ldr	r3, [r2, #8]
 8002570:	4023      	ands	r3, r4
 8002572:	6093      	str	r3, [r2, #8]
 8002574:	f381 8810 	msr	PRIMASK, r1
 8002578:	6ec3      	ldr	r3, [r0, #108]	; 0x6c
 800257a:	2b01      	cmp	r3, #1
 800257c:	d10a      	bne.n	8002594 <UART_EndRxTransfer+0x4c>
 800257e:	f3ef 8110 	mrs	r1, PRIMASK
 8002582:	f383 8810 	msr	PRIMASK, r3
 8002586:	2410      	movs	r4, #16
 8002588:	6802      	ldr	r2, [r0, #0]
 800258a:	6813      	ldr	r3, [r2, #0]
 800258c:	43a3      	bics	r3, r4
 800258e:	6013      	str	r3, [r2, #0]
 8002590:	f381 8810 	msr	PRIMASK, r1
 8002594:	0003      	movs	r3, r0
 8002596:	2220      	movs	r2, #32
 8002598:	338c      	adds	r3, #140	; 0x8c
 800259a:	601a      	str	r2, [r3, #0]
 800259c:	2300      	movs	r3, #0
 800259e:	66c3      	str	r3, [r0, #108]	; 0x6c
 80025a0:	6743      	str	r3, [r0, #116]	; 0x74
 80025a2:	bd30      	pop	{r4, r5, pc}
 80025a4:	fffffedf 	.word	0xfffffedf
 80025a8:	effffffe 	.word	0xeffffffe

080025ac <UART_SetConfig>:
 80025ac:	b570      	push	{r4, r5, r6, lr}
 80025ae:	0004      	movs	r4, r0
 80025b0:	6925      	ldr	r5, [r4, #16]
 80025b2:	68a1      	ldr	r1, [r4, #8]
 80025b4:	6802      	ldr	r2, [r0, #0]
 80025b6:	4329      	orrs	r1, r5
 80025b8:	6965      	ldr	r5, [r4, #20]
 80025ba:	69c3      	ldr	r3, [r0, #28]
 80025bc:	4329      	orrs	r1, r5
 80025be:	6810      	ldr	r0, [r2, #0]
 80025c0:	4d4e      	ldr	r5, [pc, #312]	; (80026fc <UART_SetConfig+0x150>)
 80025c2:	4319      	orrs	r1, r3
 80025c4:	4028      	ands	r0, r5
 80025c6:	4301      	orrs	r1, r0
 80025c8:	6011      	str	r1, [r2, #0]
 80025ca:	6851      	ldr	r1, [r2, #4]
 80025cc:	484c      	ldr	r0, [pc, #304]	; (8002700 <UART_SetConfig+0x154>)
 80025ce:	6a25      	ldr	r5, [r4, #32]
 80025d0:	4001      	ands	r1, r0
 80025d2:	68e0      	ldr	r0, [r4, #12]
 80025d4:	4301      	orrs	r1, r0
 80025d6:	6051      	str	r1, [r2, #4]
 80025d8:	69a1      	ldr	r1, [r4, #24]
 80025da:	6890      	ldr	r0, [r2, #8]
 80025dc:	4329      	orrs	r1, r5
 80025de:	4d49      	ldr	r5, [pc, #292]	; (8002704 <UART_SetConfig+0x158>)
 80025e0:	4028      	ands	r0, r5
 80025e2:	4301      	orrs	r1, r0
 80025e4:	200f      	movs	r0, #15
 80025e6:	6091      	str	r1, [r2, #8]
 80025e8:	6ad1      	ldr	r1, [r2, #44]	; 0x2c
 80025ea:	4381      	bics	r1, r0
 80025ec:	6a60      	ldr	r0, [r4, #36]	; 0x24
 80025ee:	4301      	orrs	r1, r0
 80025f0:	62d1      	str	r1, [r2, #44]	; 0x2c
 80025f2:	4945      	ldr	r1, [pc, #276]	; (8002708 <UART_SetConfig+0x15c>)
 80025f4:	428a      	cmp	r2, r1
 80025f6:	d116      	bne.n	8002626 <UART_SetConfig+0x7a>
 80025f8:	2003      	movs	r0, #3
 80025fa:	4944      	ldr	r1, [pc, #272]	; (800270c <UART_SetConfig+0x160>)
 80025fc:	6d4a      	ldr	r2, [r1, #84]	; 0x54
 80025fe:	4002      	ands	r2, r0
 8002600:	3a01      	subs	r2, #1
 8002602:	2a02      	cmp	r2, #2
 8002604:	d812      	bhi.n	800262c <UART_SetConfig+0x80>
 8002606:	4842      	ldr	r0, [pc, #264]	; (8002710 <UART_SetConfig+0x164>)
 8002608:	5c80      	ldrb	r0, [r0, r2]
 800260a:	2280      	movs	r2, #128	; 0x80
 800260c:	0212      	lsls	r2, r2, #8
 800260e:	4293      	cmp	r3, r2
 8002610:	d01b      	beq.n	800264a <UART_SetConfig+0x9e>
 8002612:	2808      	cmp	r0, #8
 8002614:	d900      	bls.n	8002618 <UART_SetConfig+0x6c>
 8002616:	e06f      	b.n	80026f8 <UART_SetConfig+0x14c>
 8002618:	f7fd fd88 	bl	800012c <__gnu_thumb1_case_uqi>
 800261c:	6e4d6e48 	.word	0x6e4d6e48
 8002620:	6e6e6e68 	.word	0x6e6e6e68
 8002624:	6b          	.byte	0x6b
 8002625:	00          	.byte	0x00
 8002626:	493b      	ldr	r1, [pc, #236]	; (8002714 <UART_SetConfig+0x168>)
 8002628:	428a      	cmp	r2, r1
 800262a:	d165      	bne.n	80026f8 <UART_SetConfig+0x14c>
 800262c:	2280      	movs	r2, #128	; 0x80
 800262e:	0212      	lsls	r2, r2, #8
 8002630:	4293      	cmp	r3, r2
 8002632:	d13b      	bne.n	80026ac <UART_SetConfig+0x100>
 8002634:	f7ff fa7c 	bl	8001b30 <HAL_RCC_GetPCLK1Freq>
 8002638:	1e03      	subs	r3, r0, #0
 800263a:	d117      	bne.n	800266c <UART_SetConfig+0xc0>
 800263c:	2000      	movs	r0, #0
 800263e:	4b36      	ldr	r3, [pc, #216]	; (8002718 <UART_SetConfig+0x16c>)
 8002640:	66a3      	str	r3, [r4, #104]	; 0x68
 8002642:	2300      	movs	r3, #0
 8002644:	6763      	str	r3, [r4, #116]	; 0x74
 8002646:	67a3      	str	r3, [r4, #120]	; 0x78
 8002648:	bd70      	pop	{r4, r5, r6, pc}
 800264a:	2808      	cmp	r0, #8
 800264c:	d854      	bhi.n	80026f8 <UART_SetConfig+0x14c>
 800264e:	f7fd fd63 	bl	8000118 <__gnu_thumb1_case_sqi>
 8002652:	53f1      	.short	0x53f1
 8002654:	532a5305 	.word	0x532a5305
 8002658:	5353      	.short	0x5353
 800265a:	0d          	.byte	0x0d
 800265b:	00          	.byte	0x00
 800265c:	6809      	ldr	r1, [r1, #0]
 800265e:	482f      	ldr	r0, [pc, #188]	; (800271c <UART_SetConfig+0x170>)
 8002660:	0609      	lsls	r1, r1, #24
 8002662:	0f49      	lsrs	r1, r1, #29
 8002664:	3101      	adds	r1, #1
 8002666:	f7fd fd75 	bl	8000154 <__udivsi3>
 800266a:	0003      	movs	r3, r0
 800266c:	6a61      	ldr	r1, [r4, #36]	; 0x24
 800266e:	4a2c      	ldr	r2, [pc, #176]	; (8002720 <UART_SetConfig+0x174>)
 8002670:	0049      	lsls	r1, r1, #1
 8002672:	5a89      	ldrh	r1, [r1, r2]
 8002674:	0018      	movs	r0, r3
 8002676:	f7fd fd6d 	bl	8000154 <__udivsi3>
 800267a:	6865      	ldr	r5, [r4, #4]
 800267c:	0040      	lsls	r0, r0, #1
 800267e:	086b      	lsrs	r3, r5, #1
 8002680:	18c0      	adds	r0, r0, r3
 8002682:	0029      	movs	r1, r5
 8002684:	f7fd fd66 	bl	8000154 <__udivsi3>
 8002688:	0002      	movs	r2, r0
 800268a:	4b26      	ldr	r3, [pc, #152]	; (8002724 <UART_SetConfig+0x178>)
 800268c:	3a10      	subs	r2, #16
 800268e:	429a      	cmp	r2, r3
 8002690:	d832      	bhi.n	80026f8 <UART_SetConfig+0x14c>
 8002692:	230f      	movs	r3, #15
 8002694:	0002      	movs	r2, r0
 8002696:	0700      	lsls	r0, r0, #28
 8002698:	439a      	bics	r2, r3
 800269a:	b293      	uxth	r3, r2
 800269c:	0f40      	lsrs	r0, r0, #29
 800269e:	6822      	ldr	r2, [r4, #0]
 80026a0:	4303      	orrs	r3, r0
 80026a2:	60d3      	str	r3, [r2, #12]
 80026a4:	e7ca      	b.n	800263c <UART_SetConfig+0x90>
 80026a6:	f7ff f96d 	bl	8001984 <HAL_RCC_GetSysClockFreq>
 80026aa:	e7c5      	b.n	8002638 <UART_SetConfig+0x8c>
 80026ac:	f7ff fa40 	bl	8001b30 <HAL_RCC_GetPCLK1Freq>
 80026b0:	2800      	cmp	r0, #0
 80026b2:	d0c3      	beq.n	800263c <UART_SetConfig+0x90>
 80026b4:	e006      	b.n	80026c4 <UART_SetConfig+0x118>
 80026b6:	6809      	ldr	r1, [r1, #0]
 80026b8:	4818      	ldr	r0, [pc, #96]	; (800271c <UART_SetConfig+0x170>)
 80026ba:	0609      	lsls	r1, r1, #24
 80026bc:	0f49      	lsrs	r1, r1, #29
 80026be:	3101      	adds	r1, #1
 80026c0:	f7fd fd48 	bl	8000154 <__udivsi3>
 80026c4:	6a62      	ldr	r2, [r4, #36]	; 0x24
 80026c6:	4b16      	ldr	r3, [pc, #88]	; (8002720 <UART_SetConfig+0x174>)
 80026c8:	0052      	lsls	r2, r2, #1
 80026ca:	5ad1      	ldrh	r1, [r2, r3]
 80026cc:	f7fd fd42 	bl	8000154 <__udivsi3>
 80026d0:	6865      	ldr	r5, [r4, #4]
 80026d2:	086b      	lsrs	r3, r5, #1
 80026d4:	18c0      	adds	r0, r0, r3
 80026d6:	0029      	movs	r1, r5
 80026d8:	f7fd fd3c 	bl	8000154 <__udivsi3>
 80026dc:	0002      	movs	r2, r0
 80026de:	4b11      	ldr	r3, [pc, #68]	; (8002724 <UART_SetConfig+0x178>)
 80026e0:	3a10      	subs	r2, #16
 80026e2:	429a      	cmp	r2, r3
 80026e4:	d808      	bhi.n	80026f8 <UART_SetConfig+0x14c>
 80026e6:	6823      	ldr	r3, [r4, #0]
 80026e8:	60d8      	str	r0, [r3, #12]
 80026ea:	e7a7      	b.n	800263c <UART_SetConfig+0x90>
 80026ec:	f7ff f94a 	bl	8001984 <HAL_RCC_GetSysClockFreq>
 80026f0:	e7de      	b.n	80026b0 <UART_SetConfig+0x104>
 80026f2:	2080      	movs	r0, #128	; 0x80
 80026f4:	0200      	lsls	r0, r0, #8
 80026f6:	e7e5      	b.n	80026c4 <UART_SetConfig+0x118>
 80026f8:	2001      	movs	r0, #1
 80026fa:	e7a0      	b.n	800263e <UART_SetConfig+0x92>
 80026fc:	cfff69f3 	.word	0xcfff69f3
 8002700:	ffffcfff 	.word	0xffffcfff
 8002704:	11fff4ff 	.word	0x11fff4ff
 8002708:	40013800 	.word	0x40013800
 800270c:	40021000 	.word	0x40021000
 8002710:	080034b8 	.word	0x080034b8
 8002714:	40004400 	.word	0x40004400
 8002718:	00010001 	.word	0x00010001
 800271c:	02dc6c00 	.word	0x02dc6c00
 8002720:	080034bc 	.word	0x080034bc
 8002724:	0000ffef 	.word	0x0000ffef

08002728 <UART_AdvFeatureConfig>:
 8002728:	6a83      	ldr	r3, [r0, #40]	; 0x28
 800272a:	b530      	push	{r4, r5, lr}
 800272c:	071a      	lsls	r2, r3, #28
 800272e:	d506      	bpl.n	800273e <UART_AdvFeatureConfig+0x16>
 8002730:	6801      	ldr	r1, [r0, #0]
 8002732:	4c28      	ldr	r4, [pc, #160]	; (80027d4 <UART_AdvFeatureConfig+0xac>)
 8002734:	684a      	ldr	r2, [r1, #4]
 8002736:	4022      	ands	r2, r4
 8002738:	6b84      	ldr	r4, [r0, #56]	; 0x38
 800273a:	4322      	orrs	r2, r4
 800273c:	604a      	str	r2, [r1, #4]
 800273e:	07da      	lsls	r2, r3, #31
 8002740:	d506      	bpl.n	8002750 <UART_AdvFeatureConfig+0x28>
 8002742:	6801      	ldr	r1, [r0, #0]
 8002744:	4c24      	ldr	r4, [pc, #144]	; (80027d8 <UART_AdvFeatureConfig+0xb0>)
 8002746:	684a      	ldr	r2, [r1, #4]
 8002748:	4022      	ands	r2, r4
 800274a:	6ac4      	ldr	r4, [r0, #44]	; 0x2c
 800274c:	4322      	orrs	r2, r4
 800274e:	604a      	str	r2, [r1, #4]
 8002750:	079a      	lsls	r2, r3, #30
 8002752:	d506      	bpl.n	8002762 <UART_AdvFeatureConfig+0x3a>
 8002754:	6801      	ldr	r1, [r0, #0]
 8002756:	4c21      	ldr	r4, [pc, #132]	; (80027dc <UART_AdvFeatureConfig+0xb4>)
 8002758:	684a      	ldr	r2, [r1, #4]
 800275a:	4022      	ands	r2, r4
 800275c:	6b04      	ldr	r4, [r0, #48]	; 0x30
 800275e:	4322      	orrs	r2, r4
 8002760:	604a      	str	r2, [r1, #4]
 8002762:	075a      	lsls	r2, r3, #29
 8002764:	d506      	bpl.n	8002774 <UART_AdvFeatureConfig+0x4c>
 8002766:	6801      	ldr	r1, [r0, #0]
 8002768:	4c1d      	ldr	r4, [pc, #116]	; (80027e0 <UART_AdvFeatureConfig+0xb8>)
 800276a:	684a      	ldr	r2, [r1, #4]
 800276c:	4022      	ands	r2, r4
 800276e:	6b44      	ldr	r4, [r0, #52]	; 0x34
 8002770:	4322      	orrs	r2, r4
 8002772:	604a      	str	r2, [r1, #4]
 8002774:	06da      	lsls	r2, r3, #27
 8002776:	d506      	bpl.n	8002786 <UART_AdvFeatureConfig+0x5e>
 8002778:	6801      	ldr	r1, [r0, #0]
 800277a:	4c1a      	ldr	r4, [pc, #104]	; (80027e4 <UART_AdvFeatureConfig+0xbc>)
 800277c:	688a      	ldr	r2, [r1, #8]
 800277e:	4022      	ands	r2, r4
 8002780:	6bc4      	ldr	r4, [r0, #60]	; 0x3c
 8002782:	4322      	orrs	r2, r4
 8002784:	608a      	str	r2, [r1, #8]
 8002786:	069a      	lsls	r2, r3, #26
 8002788:	d506      	bpl.n	8002798 <UART_AdvFeatureConfig+0x70>
 800278a:	6801      	ldr	r1, [r0, #0]
 800278c:	4c16      	ldr	r4, [pc, #88]	; (80027e8 <UART_AdvFeatureConfig+0xc0>)
 800278e:	688a      	ldr	r2, [r1, #8]
 8002790:	4022      	ands	r2, r4
 8002792:	6c04      	ldr	r4, [r0, #64]	; 0x40
 8002794:	4322      	orrs	r2, r4
 8002796:	608a      	str	r2, [r1, #8]
 8002798:	065a      	lsls	r2, r3, #25
 800279a:	d510      	bpl.n	80027be <UART_AdvFeatureConfig+0x96>
 800279c:	6801      	ldr	r1, [r0, #0]
 800279e:	4d13      	ldr	r5, [pc, #76]	; (80027ec <UART_AdvFeatureConfig+0xc4>)
 80027a0:	684a      	ldr	r2, [r1, #4]
 80027a2:	6c44      	ldr	r4, [r0, #68]	; 0x44
 80027a4:	402a      	ands	r2, r5
 80027a6:	4322      	orrs	r2, r4
 80027a8:	604a      	str	r2, [r1, #4]
 80027aa:	2280      	movs	r2, #128	; 0x80
 80027ac:	0352      	lsls	r2, r2, #13
 80027ae:	4294      	cmp	r4, r2
 80027b0:	d105      	bne.n	80027be <UART_AdvFeatureConfig+0x96>
 80027b2:	684a      	ldr	r2, [r1, #4]
 80027b4:	4c0e      	ldr	r4, [pc, #56]	; (80027f0 <UART_AdvFeatureConfig+0xc8>)
 80027b6:	4022      	ands	r2, r4
 80027b8:	6c84      	ldr	r4, [r0, #72]	; 0x48
 80027ba:	4322      	orrs	r2, r4
 80027bc:	604a      	str	r2, [r1, #4]
 80027be:	061b      	lsls	r3, r3, #24
 80027c0:	d506      	bpl.n	80027d0 <UART_AdvFeatureConfig+0xa8>
 80027c2:	6802      	ldr	r2, [r0, #0]
 80027c4:	490b      	ldr	r1, [pc, #44]	; (80027f4 <UART_AdvFeatureConfig+0xcc>)
 80027c6:	6853      	ldr	r3, [r2, #4]
 80027c8:	400b      	ands	r3, r1
 80027ca:	6cc1      	ldr	r1, [r0, #76]	; 0x4c
 80027cc:	430b      	orrs	r3, r1
 80027ce:	6053      	str	r3, [r2, #4]
 80027d0:	bd30      	pop	{r4, r5, pc}
 80027d2:	46c0      	nop			; (mov r8, r8)
 80027d4:	ffff7fff 	.word	0xffff7fff
 80027d8:	fffdffff 	.word	0xfffdffff
 80027dc:	fffeffff 	.word	0xfffeffff
 80027e0:	fffbffff 	.word	0xfffbffff
 80027e4:	ffffefff 	.word	0xffffefff
 80027e8:	ffffdfff 	.word	0xffffdfff
 80027ec:	ffefffff 	.word	0xffefffff
 80027f0:	ff9fffff 	.word	0xff9fffff
 80027f4:	fff7ffff 	.word	0xfff7ffff

080027f8 <UART_WaitOnFlagUntilTimeout>:
 80027f8:	b5f7      	push	{r0, r1, r2, r4, r5, r6, r7, lr}
 80027fa:	0004      	movs	r4, r0
 80027fc:	000d      	movs	r5, r1
 80027fe:	0017      	movs	r7, r2
 8002800:	2608      	movs	r6, #8
 8002802:	9300      	str	r3, [sp, #0]
 8002804:	6822      	ldr	r2, [r4, #0]
 8002806:	69d3      	ldr	r3, [r2, #28]
 8002808:	402b      	ands	r3, r5
 800280a:	1b5b      	subs	r3, r3, r5
 800280c:	4259      	negs	r1, r3
 800280e:	414b      	adcs	r3, r1
 8002810:	42bb      	cmp	r3, r7
 8002812:	d001      	beq.n	8002818 <UART_WaitOnFlagUntilTimeout+0x20>
 8002814:	2000      	movs	r0, #0
 8002816:	e021      	b.n	800285c <UART_WaitOnFlagUntilTimeout+0x64>
 8002818:	9b08      	ldr	r3, [sp, #32]
 800281a:	3301      	adds	r3, #1
 800281c:	d0f3      	beq.n	8002806 <UART_WaitOnFlagUntilTimeout+0xe>
 800281e:	f7fe fa87 	bl	8000d30 <HAL_GetTick>
 8002822:	9b00      	ldr	r3, [sp, #0]
 8002824:	1ac0      	subs	r0, r0, r3
 8002826:	9b08      	ldr	r3, [sp, #32]
 8002828:	4298      	cmp	r0, r3
 800282a:	d828      	bhi.n	800287e <UART_WaitOnFlagUntilTimeout+0x86>
 800282c:	2b00      	cmp	r3, #0
 800282e:	d026      	beq.n	800287e <UART_WaitOnFlagUntilTimeout+0x86>
 8002830:	2104      	movs	r1, #4
 8002832:	6823      	ldr	r3, [r4, #0]
 8002834:	681a      	ldr	r2, [r3, #0]
 8002836:	420a      	tst	r2, r1
 8002838:	d0e4      	beq.n	8002804 <UART_WaitOnFlagUntilTimeout+0xc>
 800283a:	69da      	ldr	r2, [r3, #28]
 800283c:	0011      	movs	r1, r2
 800283e:	4031      	ands	r1, r6
 8002840:	9101      	str	r1, [sp, #4]
 8002842:	4232      	tst	r2, r6
 8002844:	d00b      	beq.n	800285e <UART_WaitOnFlagUntilTimeout+0x66>
 8002846:	0020      	movs	r0, r4
 8002848:	621e      	str	r6, [r3, #32]
 800284a:	f7ff fe7d 	bl	8002548 <UART_EndRxTransfer>
 800284e:	0023      	movs	r3, r4
 8002850:	3390      	adds	r3, #144	; 0x90
 8002852:	601e      	str	r6, [r3, #0]
 8002854:	2300      	movs	r3, #0
 8002856:	2001      	movs	r0, #1
 8002858:	3484      	adds	r4, #132	; 0x84
 800285a:	7023      	strb	r3, [r4, #0]
 800285c:	bdfe      	pop	{r1, r2, r3, r4, r5, r6, r7, pc}
 800285e:	2280      	movs	r2, #128	; 0x80
 8002860:	69d9      	ldr	r1, [r3, #28]
 8002862:	0112      	lsls	r2, r2, #4
 8002864:	4211      	tst	r1, r2
 8002866:	d0cd      	beq.n	8002804 <UART_WaitOnFlagUntilTimeout+0xc>
 8002868:	621a      	str	r2, [r3, #32]
 800286a:	0020      	movs	r0, r4
 800286c:	f7ff fe6c 	bl	8002548 <UART_EndRxTransfer>
 8002870:	0023      	movs	r3, r4
 8002872:	2220      	movs	r2, #32
 8002874:	3390      	adds	r3, #144	; 0x90
 8002876:	601a      	str	r2, [r3, #0]
 8002878:	9b01      	ldr	r3, [sp, #4]
 800287a:	3484      	adds	r4, #132	; 0x84
 800287c:	7023      	strb	r3, [r4, #0]
 800287e:	2003      	movs	r0, #3
 8002880:	e7ec      	b.n	800285c <UART_WaitOnFlagUntilTimeout+0x64>

08002882 <HAL_UART_Transmit>:
 8002882:	b5f0      	push	{r4, r5, r6, r7, lr}
 8002884:	0016      	movs	r6, r2
 8002886:	0002      	movs	r2, r0
 8002888:	b085      	sub	sp, #20
 800288a:	3288      	adds	r2, #136	; 0x88
 800288c:	9303      	str	r3, [sp, #12]
 800288e:	6813      	ldr	r3, [r2, #0]
 8002890:	0004      	movs	r4, r0
 8002892:	000d      	movs	r5, r1
 8002894:	2002      	movs	r0, #2
 8002896:	2b20      	cmp	r3, #32
 8002898:	d13a      	bne.n	8002910 <HAL_UART_Transmit+0x8e>
 800289a:	3801      	subs	r0, #1
 800289c:	2900      	cmp	r1, #0
 800289e:	d037      	beq.n	8002910 <HAL_UART_Transmit+0x8e>
 80028a0:	2e00      	cmp	r6, #0
 80028a2:	d035      	beq.n	8002910 <HAL_UART_Transmit+0x8e>
 80028a4:	2380      	movs	r3, #128	; 0x80
 80028a6:	68a1      	ldr	r1, [r4, #8]
 80028a8:	015b      	lsls	r3, r3, #5
 80028aa:	4299      	cmp	r1, r3
 80028ac:	d104      	bne.n	80028b8 <HAL_UART_Transmit+0x36>
 80028ae:	6923      	ldr	r3, [r4, #16]
 80028b0:	2b00      	cmp	r3, #0
 80028b2:	d101      	bne.n	80028b8 <HAL_UART_Transmit+0x36>
 80028b4:	4205      	tst	r5, r0
 80028b6:	d12b      	bne.n	8002910 <HAL_UART_Transmit+0x8e>
 80028b8:	0023      	movs	r3, r4
 80028ba:	2100      	movs	r1, #0
 80028bc:	3390      	adds	r3, #144	; 0x90
 80028be:	6019      	str	r1, [r3, #0]
 80028c0:	2321      	movs	r3, #33	; 0x21
 80028c2:	6013      	str	r3, [r2, #0]
 80028c4:	f7fe fa34 	bl	8000d30 <HAL_GetTick>
 80028c8:	0023      	movs	r3, r4
 80028ca:	3354      	adds	r3, #84	; 0x54
 80028cc:	801e      	strh	r6, [r3, #0]
 80028ce:	3302      	adds	r3, #2
 80028d0:	801e      	strh	r6, [r3, #0]
 80028d2:	9302      	str	r3, [sp, #8]
 80028d4:	2380      	movs	r3, #128	; 0x80
 80028d6:	68a2      	ldr	r2, [r4, #8]
 80028d8:	0007      	movs	r7, r0
 80028da:	2600      	movs	r6, #0
 80028dc:	015b      	lsls	r3, r3, #5
 80028de:	429a      	cmp	r2, r3
 80028e0:	d104      	bne.n	80028ec <HAL_UART_Transmit+0x6a>
 80028e2:	6923      	ldr	r3, [r4, #16]
 80028e4:	42b3      	cmp	r3, r6
 80028e6:	d101      	bne.n	80028ec <HAL_UART_Transmit+0x6a>
 80028e8:	002e      	movs	r6, r5
 80028ea:	001d      	movs	r5, r3
 80028ec:	0023      	movs	r3, r4
 80028ee:	3356      	adds	r3, #86	; 0x56
 80028f0:	881b      	ldrh	r3, [r3, #0]
 80028f2:	b29a      	uxth	r2, r3
 80028f4:	2b00      	cmp	r3, #0
 80028f6:	d10d      	bne.n	8002914 <HAL_UART_Transmit+0x92>
 80028f8:	9b03      	ldr	r3, [sp, #12]
 80028fa:	0020      	movs	r0, r4
 80028fc:	9300      	str	r3, [sp, #0]
 80028fe:	2140      	movs	r1, #64	; 0x40
 8002900:	003b      	movs	r3, r7
 8002902:	f7ff ff79 	bl	80027f8 <UART_WaitOnFlagUntilTimeout>
 8002906:	2320      	movs	r3, #32
 8002908:	3488      	adds	r4, #136	; 0x88
 800290a:	6023      	str	r3, [r4, #0]
 800290c:	2800      	cmp	r0, #0
 800290e:	d10e      	bne.n	800292e <HAL_UART_Transmit+0xac>
 8002910:	b005      	add	sp, #20
 8002912:	bdf0      	pop	{r4, r5, r6, r7, pc}
 8002914:	9b03      	ldr	r3, [sp, #12]
 8002916:	2200      	movs	r2, #0
 8002918:	9300      	str	r3, [sp, #0]
 800291a:	2180      	movs	r1, #128	; 0x80
 800291c:	003b      	movs	r3, r7
 800291e:	0020      	movs	r0, r4
 8002920:	f7ff ff6a 	bl	80027f8 <UART_WaitOnFlagUntilTimeout>
 8002924:	2800      	cmp	r0, #0
 8002926:	d004      	beq.n	8002932 <HAL_UART_Transmit+0xb0>
 8002928:	2320      	movs	r3, #32
 800292a:	3488      	adds	r4, #136	; 0x88
 800292c:	6023      	str	r3, [r4, #0]
 800292e:	2003      	movs	r0, #3
 8002930:	e7ee      	b.n	8002910 <HAL_UART_Transmit+0x8e>
 8002932:	6822      	ldr	r2, [r4, #0]
 8002934:	2d00      	cmp	r5, #0
 8002936:	d10b      	bne.n	8002950 <HAL_UART_Transmit+0xce>
 8002938:	8833      	ldrh	r3, [r6, #0]
 800293a:	3602      	adds	r6, #2
 800293c:	05db      	lsls	r3, r3, #23
 800293e:	0ddb      	lsrs	r3, r3, #23
 8002940:	6293      	str	r3, [r2, #40]	; 0x28
 8002942:	9b02      	ldr	r3, [sp, #8]
 8002944:	9a02      	ldr	r2, [sp, #8]
 8002946:	881b      	ldrh	r3, [r3, #0]
 8002948:	3b01      	subs	r3, #1
 800294a:	b29b      	uxth	r3, r3
 800294c:	8013      	strh	r3, [r2, #0]
 800294e:	e7cd      	b.n	80028ec <HAL_UART_Transmit+0x6a>
 8002950:	782b      	ldrb	r3, [r5, #0]
 8002952:	3501      	adds	r5, #1
 8002954:	6293      	str	r3, [r2, #40]	; 0x28
 8002956:	e7f4      	b.n	8002942 <HAL_UART_Transmit+0xc0>

08002958 <UART_CheckIdleState>:
 8002958:	0003      	movs	r3, r0
 800295a:	b573      	push	{r0, r1, r4, r5, r6, lr}
 800295c:	2600      	movs	r6, #0
 800295e:	0004      	movs	r4, r0
 8002960:	3390      	adds	r3, #144	; 0x90
 8002962:	601e      	str	r6, [r3, #0]
 8002964:	f7fe f9e4 	bl	8000d30 <HAL_GetTick>
 8002968:	6823      	ldr	r3, [r4, #0]
 800296a:	0005      	movs	r5, r0
 800296c:	681b      	ldr	r3, [r3, #0]
 800296e:	071b      	lsls	r3, r3, #28
 8002970:	d51f      	bpl.n	80029b2 <UART_CheckIdleState+0x5a>
 8002972:	2180      	movs	r1, #128	; 0x80
 8002974:	4b28      	ldr	r3, [pc, #160]	; (8002a18 <UART_CheckIdleState+0xc0>)
 8002976:	0032      	movs	r2, r6
 8002978:	9300      	str	r3, [sp, #0]
 800297a:	0389      	lsls	r1, r1, #14
 800297c:	0003      	movs	r3, r0
 800297e:	0020      	movs	r0, r4
 8002980:	f7ff ff3a 	bl	80027f8 <UART_WaitOnFlagUntilTimeout>
 8002984:	42b0      	cmp	r0, r6
 8002986:	d014      	beq.n	80029b2 <UART_CheckIdleState+0x5a>
 8002988:	f3ef 8110 	mrs	r1, PRIMASK
 800298c:	2301      	movs	r3, #1
 800298e:	f383 8810 	msr	PRIMASK, r3
 8002992:	2080      	movs	r0, #128	; 0x80
 8002994:	6822      	ldr	r2, [r4, #0]
 8002996:	6813      	ldr	r3, [r2, #0]
 8002998:	4383      	bics	r3, r0
 800299a:	6013      	str	r3, [r2, #0]
 800299c:	f381 8810 	msr	PRIMASK, r1
 80029a0:	0023      	movs	r3, r4
 80029a2:	2220      	movs	r2, #32
 80029a4:	3388      	adds	r3, #136	; 0x88
 80029a6:	601a      	str	r2, [r3, #0]
 80029a8:	2003      	movs	r0, #3
 80029aa:	2300      	movs	r3, #0
 80029ac:	3484      	adds	r4, #132	; 0x84
 80029ae:	7023      	strb	r3, [r4, #0]
 80029b0:	bd76      	pop	{r1, r2, r4, r5, r6, pc}
 80029b2:	0026      	movs	r6, r4
 80029b4:	6823      	ldr	r3, [r4, #0]
 80029b6:	368c      	adds	r6, #140	; 0x8c
 80029b8:	681b      	ldr	r3, [r3, #0]
 80029ba:	075b      	lsls	r3, r3, #29
 80029bc:	d523      	bpl.n	8002a06 <UART_CheckIdleState+0xae>
 80029be:	2180      	movs	r1, #128	; 0x80
 80029c0:	4b15      	ldr	r3, [pc, #84]	; (8002a18 <UART_CheckIdleState+0xc0>)
 80029c2:	2200      	movs	r2, #0
 80029c4:	9300      	str	r3, [sp, #0]
 80029c6:	0020      	movs	r0, r4
 80029c8:	002b      	movs	r3, r5
 80029ca:	03c9      	lsls	r1, r1, #15
 80029cc:	f7ff ff14 	bl	80027f8 <UART_WaitOnFlagUntilTimeout>
 80029d0:	2800      	cmp	r0, #0
 80029d2:	d018      	beq.n	8002a06 <UART_CheckIdleState+0xae>
 80029d4:	f3ef 8010 	mrs	r0, PRIMASK
 80029d8:	2201      	movs	r2, #1
 80029da:	f382 8810 	msr	PRIMASK, r2
 80029de:	6821      	ldr	r1, [r4, #0]
 80029e0:	4d0e      	ldr	r5, [pc, #56]	; (8002a1c <UART_CheckIdleState+0xc4>)
 80029e2:	680b      	ldr	r3, [r1, #0]
 80029e4:	402b      	ands	r3, r5
 80029e6:	600b      	str	r3, [r1, #0]
 80029e8:	f380 8810 	msr	PRIMASK, r0
 80029ec:	f3ef 8010 	mrs	r0, PRIMASK
 80029f0:	f382 8810 	msr	PRIMASK, r2
 80029f4:	6821      	ldr	r1, [r4, #0]
 80029f6:	688b      	ldr	r3, [r1, #8]
 80029f8:	4393      	bics	r3, r2
 80029fa:	608b      	str	r3, [r1, #8]
 80029fc:	f380 8810 	msr	PRIMASK, r0
 8002a00:	2320      	movs	r3, #32
 8002a02:	6033      	str	r3, [r6, #0]
 8002a04:	e7d0      	b.n	80029a8 <UART_CheckIdleState+0x50>
 8002a06:	0023      	movs	r3, r4
 8002a08:	2220      	movs	r2, #32
 8002a0a:	2000      	movs	r0, #0
 8002a0c:	3388      	adds	r3, #136	; 0x88
 8002a0e:	601a      	str	r2, [r3, #0]
 8002a10:	6032      	str	r2, [r6, #0]
 8002a12:	66e0      	str	r0, [r4, #108]	; 0x6c
 8002a14:	6720      	str	r0, [r4, #112]	; 0x70
 8002a16:	e7c8      	b.n	80029aa <UART_CheckIdleState+0x52>
 8002a18:	01ffffff 	.word	0x01ffffff
 8002a1c:	fffffedf 	.word	0xfffffedf

08002a20 <HAL_UART_Init>:
 8002a20:	b570      	push	{r4, r5, r6, lr}
 8002a22:	1e04      	subs	r4, r0, #0
 8002a24:	d101      	bne.n	8002a2a <HAL_UART_Init+0xa>
 8002a26:	2001      	movs	r0, #1
 8002a28:	bd70      	pop	{r4, r5, r6, pc}
 8002a2a:	0005      	movs	r5, r0
 8002a2c:	3588      	adds	r5, #136	; 0x88
 8002a2e:	682b      	ldr	r3, [r5, #0]
 8002a30:	2b00      	cmp	r3, #0
 8002a32:	d104      	bne.n	8002a3e <HAL_UART_Init+0x1e>
 8002a34:	0002      	movs	r2, r0
 8002a36:	3284      	adds	r2, #132	; 0x84
 8002a38:	7013      	strb	r3, [r2, #0]
 8002a3a:	f7fe f893 	bl	8000b64 <HAL_UART_MspInit>
 8002a3e:	2324      	movs	r3, #36	; 0x24
 8002a40:	2101      	movs	r1, #1
 8002a42:	6822      	ldr	r2, [r4, #0]
 8002a44:	602b      	str	r3, [r5, #0]
 8002a46:	6813      	ldr	r3, [r2, #0]
 8002a48:	438b      	bics	r3, r1
 8002a4a:	6013      	str	r3, [r2, #0]
 8002a4c:	6aa3      	ldr	r3, [r4, #40]	; 0x28
 8002a4e:	2b00      	cmp	r3, #0
 8002a50:	d002      	beq.n	8002a58 <HAL_UART_Init+0x38>
 8002a52:	0020      	movs	r0, r4
 8002a54:	f7ff fe68 	bl	8002728 <UART_AdvFeatureConfig>
 8002a58:	0020      	movs	r0, r4
 8002a5a:	f7ff fda7 	bl	80025ac <UART_SetConfig>
 8002a5e:	2801      	cmp	r0, #1
 8002a60:	d0e1      	beq.n	8002a26 <HAL_UART_Init+0x6>
 8002a62:	6823      	ldr	r3, [r4, #0]
 8002a64:	4907      	ldr	r1, [pc, #28]	; (8002a84 <HAL_UART_Init+0x64>)
 8002a66:	685a      	ldr	r2, [r3, #4]
 8002a68:	0020      	movs	r0, r4
 8002a6a:	400a      	ands	r2, r1
 8002a6c:	212a      	movs	r1, #42	; 0x2a
 8002a6e:	605a      	str	r2, [r3, #4]
 8002a70:	689a      	ldr	r2, [r3, #8]
 8002a72:	438a      	bics	r2, r1
 8002a74:	609a      	str	r2, [r3, #8]
 8002a76:	2201      	movs	r2, #1
 8002a78:	6819      	ldr	r1, [r3, #0]
 8002a7a:	430a      	orrs	r2, r1
 8002a7c:	601a      	str	r2, [r3, #0]
 8002a7e:	f7ff ff6b 	bl	8002958 <UART_CheckIdleState>
 8002a82:	e7d1      	b.n	8002a28 <HAL_UART_Init+0x8>
 8002a84:	ffffb7ff 	.word	0xffffb7ff

08002a88 <siprintf>:
 8002a88:	b40e      	push	{r1, r2, r3}
 8002a8a:	b500      	push	{lr}
 8002a8c:	490b      	ldr	r1, [pc, #44]	; (8002abc <siprintf+0x34>)
 8002a8e:	b09c      	sub	sp, #112	; 0x70
 8002a90:	ab1d      	add	r3, sp, #116	; 0x74
 8002a92:	9002      	str	r0, [sp, #8]
 8002a94:	9006      	str	r0, [sp, #24]
 8002a96:	9107      	str	r1, [sp, #28]
 8002a98:	9104      	str	r1, [sp, #16]
 8002a9a:	4809      	ldr	r0, [pc, #36]	; (8002ac0 <siprintf+0x38>)
 8002a9c:	4909      	ldr	r1, [pc, #36]	; (8002ac4 <siprintf+0x3c>)
 8002a9e:	cb04      	ldmia	r3!, {r2}
 8002aa0:	9105      	str	r1, [sp, #20]
 8002aa2:	6800      	ldr	r0, [r0, #0]
 8002aa4:	a902      	add	r1, sp, #8
 8002aa6:	9301      	str	r3, [sp, #4]
 8002aa8:	f000 f9aa 	bl	8002e00 <_svfiprintf_r>
 8002aac:	2200      	movs	r2, #0
 8002aae:	9b02      	ldr	r3, [sp, #8]
 8002ab0:	701a      	strb	r2, [r3, #0]
 8002ab2:	b01c      	add	sp, #112	; 0x70
 8002ab4:	bc08      	pop	{r3}
 8002ab6:	b003      	add	sp, #12
 8002ab8:	4718      	bx	r3
 8002aba:	46c0      	nop			; (mov r8, r8)
 8002abc:	7fffffff 	.word	0x7fffffff
 8002ac0:	20000058 	.word	0x20000058
 8002ac4:	ffff0208 	.word	0xffff0208

08002ac8 <memset>:
 8002ac8:	0003      	movs	r3, r0
 8002aca:	1882      	adds	r2, r0, r2
 8002acc:	4293      	cmp	r3, r2
 8002ace:	d100      	bne.n	8002ad2 <memset+0xa>
 8002ad0:	4770      	bx	lr
 8002ad2:	7019      	strb	r1, [r3, #0]
 8002ad4:	3301      	adds	r3, #1
 8002ad6:	e7f9      	b.n	8002acc <memset+0x4>

08002ad8 <__errno>:
 8002ad8:	4b01      	ldr	r3, [pc, #4]	; (8002ae0 <__errno+0x8>)
 8002ada:	6818      	ldr	r0, [r3, #0]
 8002adc:	4770      	bx	lr
 8002ade:	46c0      	nop			; (mov r8, r8)
 8002ae0:	20000058 	.word	0x20000058

08002ae4 <__libc_init_array>:
 8002ae4:	b570      	push	{r4, r5, r6, lr}
 8002ae6:	2600      	movs	r6, #0
 8002ae8:	4c0c      	ldr	r4, [pc, #48]	; (8002b1c <__libc_init_array+0x38>)
 8002aea:	4d0d      	ldr	r5, [pc, #52]	; (8002b20 <__libc_init_array+0x3c>)
 8002aec:	1b64      	subs	r4, r4, r5
 8002aee:	10a4      	asrs	r4, r4, #2
 8002af0:	42a6      	cmp	r6, r4
 8002af2:	d109      	bne.n	8002b08 <__libc_init_array+0x24>
 8002af4:	2600      	movs	r6, #0
 8002af6:	f000 fc75 	bl	80033e4 <_init>
 8002afa:	4c0a      	ldr	r4, [pc, #40]	; (8002b24 <__libc_init_array+0x40>)
 8002afc:	4d0a      	ldr	r5, [pc, #40]	; (8002b28 <__libc_init_array+0x44>)
 8002afe:	1b64      	subs	r4, r4, r5
 8002b00:	10a4      	asrs	r4, r4, #2
 8002b02:	42a6      	cmp	r6, r4
 8002b04:	d105      	bne.n	8002b12 <__libc_init_array+0x2e>
 8002b06:	bd70      	pop	{r4, r5, r6, pc}
 8002b08:	00b3      	lsls	r3, r6, #2
 8002b0a:	58eb      	ldr	r3, [r5, r3]
 8002b0c:	4798      	blx	r3
 8002b0e:	3601      	adds	r6, #1
 8002b10:	e7ee      	b.n	8002af0 <__libc_init_array+0xc>
 8002b12:	00b3      	lsls	r3, r6, #2
 8002b14:	58eb      	ldr	r3, [r5, r3]
 8002b16:	4798      	blx	r3
 8002b18:	3601      	adds	r6, #1
 8002b1a:	e7f2      	b.n	8002b02 <__libc_init_array+0x1e>
 8002b1c:	08003508 	.word	0x08003508
 8002b20:	08003508 	.word	0x08003508
 8002b24:	0800350c 	.word	0x0800350c
 8002b28:	08003508 	.word	0x08003508

08002b2c <__retarget_lock_acquire_recursive>:
 8002b2c:	4770      	bx	lr

08002b2e <__retarget_lock_release_recursive>:
 8002b2e:	4770      	bx	lr

08002b30 <strcpy>:
 8002b30:	0003      	movs	r3, r0
 8002b32:	780a      	ldrb	r2, [r1, #0]
 8002b34:	3101      	adds	r1, #1
 8002b36:	701a      	strb	r2, [r3, #0]
 8002b38:	3301      	adds	r3, #1
 8002b3a:	2a00      	cmp	r2, #0
 8002b3c:	d1f9      	bne.n	8002b32 <strcpy+0x2>
 8002b3e:	4770      	bx	lr

08002b40 <_free_r>:
 8002b40:	b570      	push	{r4, r5, r6, lr}
 8002b42:	0005      	movs	r5, r0
 8002b44:	2900      	cmp	r1, #0
 8002b46:	d010      	beq.n	8002b6a <_free_r+0x2a>
 8002b48:	1f0c      	subs	r4, r1, #4
 8002b4a:	6823      	ldr	r3, [r4, #0]
 8002b4c:	2b00      	cmp	r3, #0
 8002b4e:	da00      	bge.n	8002b52 <_free_r+0x12>
 8002b50:	18e4      	adds	r4, r4, r3
 8002b52:	0028      	movs	r0, r5
 8002b54:	f000 f8e2 	bl	8002d1c <__malloc_lock>
 8002b58:	4a1d      	ldr	r2, [pc, #116]	; (8002bd0 <_free_r+0x90>)
 8002b5a:	6813      	ldr	r3, [r2, #0]
 8002b5c:	2b00      	cmp	r3, #0
 8002b5e:	d105      	bne.n	8002b6c <_free_r+0x2c>
 8002b60:	6063      	str	r3, [r4, #4]
 8002b62:	6014      	str	r4, [r2, #0]
 8002b64:	0028      	movs	r0, r5
 8002b66:	f000 f8e1 	bl	8002d2c <__malloc_unlock>
 8002b6a:	bd70      	pop	{r4, r5, r6, pc}
 8002b6c:	42a3      	cmp	r3, r4
 8002b6e:	d908      	bls.n	8002b82 <_free_r+0x42>
 8002b70:	6820      	ldr	r0, [r4, #0]
 8002b72:	1821      	adds	r1, r4, r0
 8002b74:	428b      	cmp	r3, r1
 8002b76:	d1f3      	bne.n	8002b60 <_free_r+0x20>
 8002b78:	6819      	ldr	r1, [r3, #0]
 8002b7a:	685b      	ldr	r3, [r3, #4]
 8002b7c:	1809      	adds	r1, r1, r0
 8002b7e:	6021      	str	r1, [r4, #0]
 8002b80:	e7ee      	b.n	8002b60 <_free_r+0x20>
 8002b82:	001a      	movs	r2, r3
 8002b84:	685b      	ldr	r3, [r3, #4]
 8002b86:	2b00      	cmp	r3, #0
 8002b88:	d001      	beq.n	8002b8e <_free_r+0x4e>
 8002b8a:	42a3      	cmp	r3, r4
 8002b8c:	d9f9      	bls.n	8002b82 <_free_r+0x42>
 8002b8e:	6811      	ldr	r1, [r2, #0]
 8002b90:	1850      	adds	r0, r2, r1
 8002b92:	42a0      	cmp	r0, r4
 8002b94:	d10b      	bne.n	8002bae <_free_r+0x6e>
 8002b96:	6820      	ldr	r0, [r4, #0]
 8002b98:	1809      	adds	r1, r1, r0
 8002b9a:	1850      	adds	r0, r2, r1
 8002b9c:	6011      	str	r1, [r2, #0]
 8002b9e:	4283      	cmp	r3, r0
 8002ba0:	d1e0      	bne.n	8002b64 <_free_r+0x24>
 8002ba2:	6818      	ldr	r0, [r3, #0]
 8002ba4:	685b      	ldr	r3, [r3, #4]
 8002ba6:	1841      	adds	r1, r0, r1
 8002ba8:	6011      	str	r1, [r2, #0]
 8002baa:	6053      	str	r3, [r2, #4]
 8002bac:	e7da      	b.n	8002b64 <_free_r+0x24>
 8002bae:	42a0      	cmp	r0, r4
 8002bb0:	d902      	bls.n	8002bb8 <_free_r+0x78>
 8002bb2:	230c      	movs	r3, #12
 8002bb4:	602b      	str	r3, [r5, #0]
 8002bb6:	e7d5      	b.n	8002b64 <_free_r+0x24>
 8002bb8:	6820      	ldr	r0, [r4, #0]
 8002bba:	1821      	adds	r1, r4, r0
 8002bbc:	428b      	cmp	r3, r1
 8002bbe:	d103      	bne.n	8002bc8 <_free_r+0x88>
 8002bc0:	6819      	ldr	r1, [r3, #0]
 8002bc2:	685b      	ldr	r3, [r3, #4]
 8002bc4:	1809      	adds	r1, r1, r0
 8002bc6:	6021      	str	r1, [r4, #0]
 8002bc8:	6063      	str	r3, [r4, #4]
 8002bca:	6054      	str	r4, [r2, #4]
 8002bcc:	e7ca      	b.n	8002b64 <_free_r+0x24>
 8002bce:	46c0      	nop			; (mov r8, r8)
 8002bd0:	20000390 	.word	0x20000390

08002bd4 <sbrk_aligned>:
 8002bd4:	b570      	push	{r4, r5, r6, lr}
 8002bd6:	4e0f      	ldr	r6, [pc, #60]	; (8002c14 <sbrk_aligned+0x40>)
 8002bd8:	000d      	movs	r5, r1
 8002bda:	6831      	ldr	r1, [r6, #0]
 8002bdc:	0004      	movs	r4, r0
 8002bde:	2900      	cmp	r1, #0
 8002be0:	d102      	bne.n	8002be8 <sbrk_aligned+0x14>
 8002be2:	f000 fba1 	bl	8003328 <_sbrk_r>
 8002be6:	6030      	str	r0, [r6, #0]
 8002be8:	0029      	movs	r1, r5
 8002bea:	0020      	movs	r0, r4
 8002bec:	f000 fb9c 	bl	8003328 <_sbrk_r>
 8002bf0:	1c43      	adds	r3, r0, #1
 8002bf2:	d00a      	beq.n	8002c0a <sbrk_aligned+0x36>
 8002bf4:	2303      	movs	r3, #3
 8002bf6:	1cc5      	adds	r5, r0, #3
 8002bf8:	439d      	bics	r5, r3
 8002bfa:	42a8      	cmp	r0, r5
 8002bfc:	d007      	beq.n	8002c0e <sbrk_aligned+0x3a>
 8002bfe:	1a29      	subs	r1, r5, r0
 8002c00:	0020      	movs	r0, r4
 8002c02:	f000 fb91 	bl	8003328 <_sbrk_r>
 8002c06:	3001      	adds	r0, #1
 8002c08:	d101      	bne.n	8002c0e <sbrk_aligned+0x3a>
 8002c0a:	2501      	movs	r5, #1
 8002c0c:	426d      	negs	r5, r5
 8002c0e:	0028      	movs	r0, r5
 8002c10:	bd70      	pop	{r4, r5, r6, pc}
 8002c12:	46c0      	nop			; (mov r8, r8)
 8002c14:	20000394 	.word	0x20000394

08002c18 <_malloc_r>:
 8002c18:	b5f7      	push	{r0, r1, r2, r4, r5, r6, r7, lr}
 8002c1a:	2203      	movs	r2, #3
 8002c1c:	1ccb      	adds	r3, r1, #3
 8002c1e:	4393      	bics	r3, r2
 8002c20:	3308      	adds	r3, #8
 8002c22:	0006      	movs	r6, r0
 8002c24:	001f      	movs	r7, r3
 8002c26:	2b0c      	cmp	r3, #12
 8002c28:	d238      	bcs.n	8002c9c <_malloc_r+0x84>
 8002c2a:	270c      	movs	r7, #12
 8002c2c:	42b9      	cmp	r1, r7
 8002c2e:	d837      	bhi.n	8002ca0 <_malloc_r+0x88>
 8002c30:	0030      	movs	r0, r6
 8002c32:	f000 f873 	bl	8002d1c <__malloc_lock>
 8002c36:	4b38      	ldr	r3, [pc, #224]	; (8002d18 <_malloc_r+0x100>)
 8002c38:	9300      	str	r3, [sp, #0]
 8002c3a:	681b      	ldr	r3, [r3, #0]
 8002c3c:	001c      	movs	r4, r3
 8002c3e:	2c00      	cmp	r4, #0
 8002c40:	d133      	bne.n	8002caa <_malloc_r+0x92>
 8002c42:	0039      	movs	r1, r7
 8002c44:	0030      	movs	r0, r6
 8002c46:	f7ff ffc5 	bl	8002bd4 <sbrk_aligned>
 8002c4a:	0004      	movs	r4, r0
 8002c4c:	1c43      	adds	r3, r0, #1
 8002c4e:	d15e      	bne.n	8002d0e <_malloc_r+0xf6>
 8002c50:	9b00      	ldr	r3, [sp, #0]
 8002c52:	681c      	ldr	r4, [r3, #0]
 8002c54:	0025      	movs	r5, r4
 8002c56:	2d00      	cmp	r5, #0
 8002c58:	d14e      	bne.n	8002cf8 <_malloc_r+0xe0>
 8002c5a:	2c00      	cmp	r4, #0
 8002c5c:	d051      	beq.n	8002d02 <_malloc_r+0xea>
 8002c5e:	6823      	ldr	r3, [r4, #0]
 8002c60:	0029      	movs	r1, r5
 8002c62:	18e3      	adds	r3, r4, r3
 8002c64:	0030      	movs	r0, r6
 8002c66:	9301      	str	r3, [sp, #4]
 8002c68:	f000 fb5e 	bl	8003328 <_sbrk_r>
 8002c6c:	9b01      	ldr	r3, [sp, #4]
 8002c6e:	4283      	cmp	r3, r0
 8002c70:	d147      	bne.n	8002d02 <_malloc_r+0xea>
 8002c72:	6823      	ldr	r3, [r4, #0]
 8002c74:	0030      	movs	r0, r6
 8002c76:	1aff      	subs	r7, r7, r3
 8002c78:	0039      	movs	r1, r7
 8002c7a:	f7ff ffab 	bl	8002bd4 <sbrk_aligned>
 8002c7e:	3001      	adds	r0, #1
 8002c80:	d03f      	beq.n	8002d02 <_malloc_r+0xea>
 8002c82:	6823      	ldr	r3, [r4, #0]
 8002c84:	19db      	adds	r3, r3, r7
 8002c86:	6023      	str	r3, [r4, #0]
 8002c88:	9b00      	ldr	r3, [sp, #0]
 8002c8a:	681b      	ldr	r3, [r3, #0]
 8002c8c:	2b00      	cmp	r3, #0
 8002c8e:	d040      	beq.n	8002d12 <_malloc_r+0xfa>
 8002c90:	685a      	ldr	r2, [r3, #4]
 8002c92:	42a2      	cmp	r2, r4
 8002c94:	d133      	bne.n	8002cfe <_malloc_r+0xe6>
 8002c96:	2200      	movs	r2, #0
 8002c98:	605a      	str	r2, [r3, #4]
 8002c9a:	e014      	b.n	8002cc6 <_malloc_r+0xae>
 8002c9c:	2b00      	cmp	r3, #0
 8002c9e:	dac5      	bge.n	8002c2c <_malloc_r+0x14>
 8002ca0:	230c      	movs	r3, #12
 8002ca2:	2500      	movs	r5, #0
 8002ca4:	6033      	str	r3, [r6, #0]
 8002ca6:	0028      	movs	r0, r5
 8002ca8:	bdfe      	pop	{r1, r2, r3, r4, r5, r6, r7, pc}
 8002caa:	6821      	ldr	r1, [r4, #0]
 8002cac:	1bc9      	subs	r1, r1, r7
 8002cae:	d420      	bmi.n	8002cf2 <_malloc_r+0xda>
 8002cb0:	290b      	cmp	r1, #11
 8002cb2:	d918      	bls.n	8002ce6 <_malloc_r+0xce>
 8002cb4:	19e2      	adds	r2, r4, r7
 8002cb6:	6027      	str	r7, [r4, #0]
 8002cb8:	42a3      	cmp	r3, r4
 8002cba:	d112      	bne.n	8002ce2 <_malloc_r+0xca>
 8002cbc:	9b00      	ldr	r3, [sp, #0]
 8002cbe:	601a      	str	r2, [r3, #0]
 8002cc0:	6863      	ldr	r3, [r4, #4]
 8002cc2:	6011      	str	r1, [r2, #0]
 8002cc4:	6053      	str	r3, [r2, #4]
 8002cc6:	0030      	movs	r0, r6
 8002cc8:	0025      	movs	r5, r4
 8002cca:	f000 f82f 	bl	8002d2c <__malloc_unlock>
 8002cce:	2207      	movs	r2, #7
 8002cd0:	350b      	adds	r5, #11
 8002cd2:	1d23      	adds	r3, r4, #4
 8002cd4:	4395      	bics	r5, r2
 8002cd6:	1aea      	subs	r2, r5, r3
 8002cd8:	429d      	cmp	r5, r3
 8002cda:	d0e4      	beq.n	8002ca6 <_malloc_r+0x8e>
 8002cdc:	1b5b      	subs	r3, r3, r5
 8002cde:	50a3      	str	r3, [r4, r2]
 8002ce0:	e7e1      	b.n	8002ca6 <_malloc_r+0x8e>
 8002ce2:	605a      	str	r2, [r3, #4]
 8002ce4:	e7ec      	b.n	8002cc0 <_malloc_r+0xa8>
 8002ce6:	6862      	ldr	r2, [r4, #4]
 8002ce8:	42a3      	cmp	r3, r4
 8002cea:	d1d5      	bne.n	8002c98 <_malloc_r+0x80>
 8002cec:	9b00      	ldr	r3, [sp, #0]
 8002cee:	601a      	str	r2, [r3, #0]
 8002cf0:	e7e9      	b.n	8002cc6 <_malloc_r+0xae>
 8002cf2:	0023      	movs	r3, r4
 8002cf4:	6864      	ldr	r4, [r4, #4]
 8002cf6:	e7a2      	b.n	8002c3e <_malloc_r+0x26>
 8002cf8:	002c      	movs	r4, r5
 8002cfa:	686d      	ldr	r5, [r5, #4]
 8002cfc:	e7ab      	b.n	8002c56 <_malloc_r+0x3e>
 8002cfe:	0013      	movs	r3, r2
 8002d00:	e7c4      	b.n	8002c8c <_malloc_r+0x74>
 8002d02:	230c      	movs	r3, #12
 8002d04:	0030      	movs	r0, r6
 8002d06:	6033      	str	r3, [r6, #0]
 8002d08:	f000 f810 	bl	8002d2c <__malloc_unlock>
 8002d0c:	e7cb      	b.n	8002ca6 <_malloc_r+0x8e>
 8002d0e:	6027      	str	r7, [r4, #0]
 8002d10:	e7d9      	b.n	8002cc6 <_malloc_r+0xae>
 8002d12:	605b      	str	r3, [r3, #4]
 8002d14:	deff      	udf	#255	; 0xff
 8002d16:	46c0      	nop			; (mov r8, r8)
 8002d18:	20000390 	.word	0x20000390

08002d1c <__malloc_lock>:
 8002d1c:	b510      	push	{r4, lr}
 8002d1e:	4802      	ldr	r0, [pc, #8]	; (8002d28 <__malloc_lock+0xc>)
 8002d20:	f7ff ff04 	bl	8002b2c <__retarget_lock_acquire_recursive>
 8002d24:	bd10      	pop	{r4, pc}
 8002d26:	46c0      	nop			; (mov r8, r8)
 8002d28:	2000038c 	.word	0x2000038c

08002d2c <__malloc_unlock>:
 8002d2c:	b510      	push	{r4, lr}
 8002d2e:	4802      	ldr	r0, [pc, #8]	; (8002d38 <__malloc_unlock+0xc>)
 8002d30:	f7ff fefd 	bl	8002b2e <__retarget_lock_release_recursive>
 8002d34:	bd10      	pop	{r4, pc}
 8002d36:	46c0      	nop			; (mov r8, r8)
 8002d38:	2000038c 	.word	0x2000038c

08002d3c <__ssputs_r>:
 8002d3c:	b5f0      	push	{r4, r5, r6, r7, lr}
 8002d3e:	b085      	sub	sp, #20
 8002d40:	9301      	str	r3, [sp, #4]
 8002d42:	9203      	str	r2, [sp, #12]
 8002d44:	688e      	ldr	r6, [r1, #8]
 8002d46:	9a01      	ldr	r2, [sp, #4]
 8002d48:	0007      	movs	r7, r0
 8002d4a:	000c      	movs	r4, r1
 8002d4c:	680b      	ldr	r3, [r1, #0]
 8002d4e:	4296      	cmp	r6, r2
 8002d50:	d831      	bhi.n	8002db6 <__ssputs_r+0x7a>
 8002d52:	898a      	ldrh	r2, [r1, #12]
 8002d54:	2190      	movs	r1, #144	; 0x90
 8002d56:	00c9      	lsls	r1, r1, #3
 8002d58:	420a      	tst	r2, r1
 8002d5a:	d029      	beq.n	8002db0 <__ssputs_r+0x74>
 8002d5c:	2003      	movs	r0, #3
 8002d5e:	6921      	ldr	r1, [r4, #16]
 8002d60:	1a5b      	subs	r3, r3, r1
 8002d62:	9302      	str	r3, [sp, #8]
 8002d64:	6963      	ldr	r3, [r4, #20]
 8002d66:	4343      	muls	r3, r0
 8002d68:	0fdd      	lsrs	r5, r3, #31
 8002d6a:	18ed      	adds	r5, r5, r3
 8002d6c:	9b01      	ldr	r3, [sp, #4]
 8002d6e:	9802      	ldr	r0, [sp, #8]
 8002d70:	3301      	adds	r3, #1
 8002d72:	181b      	adds	r3, r3, r0
 8002d74:	106d      	asrs	r5, r5, #1
 8002d76:	42ab      	cmp	r3, r5
 8002d78:	d900      	bls.n	8002d7c <__ssputs_r+0x40>
 8002d7a:	001d      	movs	r5, r3
 8002d7c:	0552      	lsls	r2, r2, #21
 8002d7e:	d529      	bpl.n	8002dd4 <__ssputs_r+0x98>
 8002d80:	0029      	movs	r1, r5
 8002d82:	0038      	movs	r0, r7
 8002d84:	f7ff ff48 	bl	8002c18 <_malloc_r>
 8002d88:	1e06      	subs	r6, r0, #0
 8002d8a:	d02d      	beq.n	8002de8 <__ssputs_r+0xac>
 8002d8c:	9a02      	ldr	r2, [sp, #8]
 8002d8e:	6921      	ldr	r1, [r4, #16]
 8002d90:	f000 fae7 	bl	8003362 <memcpy>
 8002d94:	89a2      	ldrh	r2, [r4, #12]
 8002d96:	4b19      	ldr	r3, [pc, #100]	; (8002dfc <__ssputs_r+0xc0>)
 8002d98:	401a      	ands	r2, r3
 8002d9a:	2380      	movs	r3, #128	; 0x80
 8002d9c:	4313      	orrs	r3, r2
 8002d9e:	81a3      	strh	r3, [r4, #12]
 8002da0:	9b02      	ldr	r3, [sp, #8]
 8002da2:	6126      	str	r6, [r4, #16]
 8002da4:	18f6      	adds	r6, r6, r3
 8002da6:	6026      	str	r6, [r4, #0]
 8002da8:	6165      	str	r5, [r4, #20]
 8002daa:	9e01      	ldr	r6, [sp, #4]
 8002dac:	1aed      	subs	r5, r5, r3
 8002dae:	60a5      	str	r5, [r4, #8]
 8002db0:	9b01      	ldr	r3, [sp, #4]
 8002db2:	429e      	cmp	r6, r3
 8002db4:	d900      	bls.n	8002db8 <__ssputs_r+0x7c>
 8002db6:	9e01      	ldr	r6, [sp, #4]
 8002db8:	0032      	movs	r2, r6
 8002dba:	9903      	ldr	r1, [sp, #12]
 8002dbc:	6820      	ldr	r0, [r4, #0]
 8002dbe:	f000 fa9f 	bl	8003300 <memmove>
 8002dc2:	2000      	movs	r0, #0
 8002dc4:	68a3      	ldr	r3, [r4, #8]
 8002dc6:	1b9b      	subs	r3, r3, r6
 8002dc8:	60a3      	str	r3, [r4, #8]
 8002dca:	6823      	ldr	r3, [r4, #0]
 8002dcc:	199b      	adds	r3, r3, r6
 8002dce:	6023      	str	r3, [r4, #0]
 8002dd0:	b005      	add	sp, #20
 8002dd2:	bdf0      	pop	{r4, r5, r6, r7, pc}
 8002dd4:	002a      	movs	r2, r5
 8002dd6:	0038      	movs	r0, r7
 8002dd8:	f000 facc 	bl	8003374 <_realloc_r>
 8002ddc:	1e06      	subs	r6, r0, #0
 8002dde:	d1df      	bne.n	8002da0 <__ssputs_r+0x64>
 8002de0:	0038      	movs	r0, r7
 8002de2:	6921      	ldr	r1, [r4, #16]
 8002de4:	f7ff feac 	bl	8002b40 <_free_r>
 8002de8:	230c      	movs	r3, #12
 8002dea:	2001      	movs	r0, #1
 8002dec:	603b      	str	r3, [r7, #0]
 8002dee:	89a2      	ldrh	r2, [r4, #12]
 8002df0:	3334      	adds	r3, #52	; 0x34
 8002df2:	4313      	orrs	r3, r2
 8002df4:	81a3      	strh	r3, [r4, #12]
 8002df6:	4240      	negs	r0, r0
 8002df8:	e7ea      	b.n	8002dd0 <__ssputs_r+0x94>
 8002dfa:	46c0      	nop			; (mov r8, r8)
 8002dfc:	fffffb7f 	.word	0xfffffb7f

08002e00 <_svfiprintf_r>:
 8002e00:	b5f0      	push	{r4, r5, r6, r7, lr}
 8002e02:	b0a1      	sub	sp, #132	; 0x84
 8002e04:	9003      	str	r0, [sp, #12]
 8002e06:	001d      	movs	r5, r3
 8002e08:	898b      	ldrh	r3, [r1, #12]
 8002e0a:	000f      	movs	r7, r1
 8002e0c:	0016      	movs	r6, r2
 8002e0e:	061b      	lsls	r3, r3, #24
 8002e10:	d511      	bpl.n	8002e36 <_svfiprintf_r+0x36>
 8002e12:	690b      	ldr	r3, [r1, #16]
 8002e14:	2b00      	cmp	r3, #0
 8002e16:	d10e      	bne.n	8002e36 <_svfiprintf_r+0x36>
 8002e18:	2140      	movs	r1, #64	; 0x40
 8002e1a:	f7ff fefd 	bl	8002c18 <_malloc_r>
 8002e1e:	6038      	str	r0, [r7, #0]
 8002e20:	6138      	str	r0, [r7, #16]
 8002e22:	2800      	cmp	r0, #0
 8002e24:	d105      	bne.n	8002e32 <_svfiprintf_r+0x32>
 8002e26:	230c      	movs	r3, #12
 8002e28:	9a03      	ldr	r2, [sp, #12]
 8002e2a:	3801      	subs	r0, #1
 8002e2c:	6013      	str	r3, [r2, #0]
 8002e2e:	b021      	add	sp, #132	; 0x84
 8002e30:	bdf0      	pop	{r4, r5, r6, r7, pc}
 8002e32:	2340      	movs	r3, #64	; 0x40
 8002e34:	617b      	str	r3, [r7, #20]
 8002e36:	2300      	movs	r3, #0
 8002e38:	ac08      	add	r4, sp, #32
 8002e3a:	6163      	str	r3, [r4, #20]
 8002e3c:	3320      	adds	r3, #32
 8002e3e:	7663      	strb	r3, [r4, #25]
 8002e40:	3310      	adds	r3, #16
 8002e42:	76a3      	strb	r3, [r4, #26]
 8002e44:	9507      	str	r5, [sp, #28]
 8002e46:	0035      	movs	r5, r6
 8002e48:	782b      	ldrb	r3, [r5, #0]
 8002e4a:	2b00      	cmp	r3, #0
 8002e4c:	d001      	beq.n	8002e52 <_svfiprintf_r+0x52>
 8002e4e:	2b25      	cmp	r3, #37	; 0x25
 8002e50:	d148      	bne.n	8002ee4 <_svfiprintf_r+0xe4>
 8002e52:	1bab      	subs	r3, r5, r6
 8002e54:	9305      	str	r3, [sp, #20]
 8002e56:	42b5      	cmp	r5, r6
 8002e58:	d00b      	beq.n	8002e72 <_svfiprintf_r+0x72>
 8002e5a:	0032      	movs	r2, r6
 8002e5c:	0039      	movs	r1, r7
 8002e5e:	9803      	ldr	r0, [sp, #12]
 8002e60:	f7ff ff6c 	bl	8002d3c <__ssputs_r>
 8002e64:	3001      	adds	r0, #1
 8002e66:	d100      	bne.n	8002e6a <_svfiprintf_r+0x6a>
 8002e68:	e0af      	b.n	8002fca <_svfiprintf_r+0x1ca>
 8002e6a:	6963      	ldr	r3, [r4, #20]
 8002e6c:	9a05      	ldr	r2, [sp, #20]
 8002e6e:	189b      	adds	r3, r3, r2
 8002e70:	6163      	str	r3, [r4, #20]
 8002e72:	782b      	ldrb	r3, [r5, #0]
 8002e74:	2b00      	cmp	r3, #0
 8002e76:	d100      	bne.n	8002e7a <_svfiprintf_r+0x7a>
 8002e78:	e0a7      	b.n	8002fca <_svfiprintf_r+0x1ca>
 8002e7a:	2201      	movs	r2, #1
 8002e7c:	2300      	movs	r3, #0
 8002e7e:	4252      	negs	r2, r2
 8002e80:	6062      	str	r2, [r4, #4]
 8002e82:	a904      	add	r1, sp, #16
 8002e84:	3254      	adds	r2, #84	; 0x54
 8002e86:	1852      	adds	r2, r2, r1
 8002e88:	1c6e      	adds	r6, r5, #1
 8002e8a:	6023      	str	r3, [r4, #0]
 8002e8c:	60e3      	str	r3, [r4, #12]
 8002e8e:	60a3      	str	r3, [r4, #8]
 8002e90:	7013      	strb	r3, [r2, #0]
 8002e92:	65a3      	str	r3, [r4, #88]	; 0x58
 8002e94:	4b55      	ldr	r3, [pc, #340]	; (8002fec <_svfiprintf_r+0x1ec>)
 8002e96:	2205      	movs	r2, #5
 8002e98:	0018      	movs	r0, r3
 8002e9a:	7831      	ldrb	r1, [r6, #0]
 8002e9c:	9305      	str	r3, [sp, #20]
 8002e9e:	f000 fa55 	bl	800334c <memchr>
 8002ea2:	1c75      	adds	r5, r6, #1
 8002ea4:	2800      	cmp	r0, #0
 8002ea6:	d11f      	bne.n	8002ee8 <_svfiprintf_r+0xe8>
 8002ea8:	6822      	ldr	r2, [r4, #0]
 8002eaa:	06d3      	lsls	r3, r2, #27
 8002eac:	d504      	bpl.n	8002eb8 <_svfiprintf_r+0xb8>
 8002eae:	2353      	movs	r3, #83	; 0x53
 8002eb0:	a904      	add	r1, sp, #16
 8002eb2:	185b      	adds	r3, r3, r1
 8002eb4:	2120      	movs	r1, #32
 8002eb6:	7019      	strb	r1, [r3, #0]
 8002eb8:	0713      	lsls	r3, r2, #28
 8002eba:	d504      	bpl.n	8002ec6 <_svfiprintf_r+0xc6>
 8002ebc:	2353      	movs	r3, #83	; 0x53
 8002ebe:	a904      	add	r1, sp, #16
 8002ec0:	185b      	adds	r3, r3, r1
 8002ec2:	212b      	movs	r1, #43	; 0x2b
 8002ec4:	7019      	strb	r1, [r3, #0]
 8002ec6:	7833      	ldrb	r3, [r6, #0]
 8002ec8:	2b2a      	cmp	r3, #42	; 0x2a
 8002eca:	d016      	beq.n	8002efa <_svfiprintf_r+0xfa>
 8002ecc:	0035      	movs	r5, r6
 8002ece:	2100      	movs	r1, #0
 8002ed0:	200a      	movs	r0, #10
 8002ed2:	68e3      	ldr	r3, [r4, #12]
 8002ed4:	782a      	ldrb	r2, [r5, #0]
 8002ed6:	1c6e      	adds	r6, r5, #1
 8002ed8:	3a30      	subs	r2, #48	; 0x30
 8002eda:	2a09      	cmp	r2, #9
 8002edc:	d94e      	bls.n	8002f7c <_svfiprintf_r+0x17c>
 8002ede:	2900      	cmp	r1, #0
 8002ee0:	d111      	bne.n	8002f06 <_svfiprintf_r+0x106>
 8002ee2:	e017      	b.n	8002f14 <_svfiprintf_r+0x114>
 8002ee4:	3501      	adds	r5, #1
 8002ee6:	e7af      	b.n	8002e48 <_svfiprintf_r+0x48>
 8002ee8:	9b05      	ldr	r3, [sp, #20]
 8002eea:	6822      	ldr	r2, [r4, #0]
 8002eec:	1ac0      	subs	r0, r0, r3
 8002eee:	2301      	movs	r3, #1
 8002ef0:	4083      	lsls	r3, r0
 8002ef2:	4313      	orrs	r3, r2
 8002ef4:	002e      	movs	r6, r5
 8002ef6:	6023      	str	r3, [r4, #0]
 8002ef8:	e7cc      	b.n	8002e94 <_svfiprintf_r+0x94>
 8002efa:	9b07      	ldr	r3, [sp, #28]
 8002efc:	1d19      	adds	r1, r3, #4
 8002efe:	681b      	ldr	r3, [r3, #0]
 8002f00:	9107      	str	r1, [sp, #28]
 8002f02:	2b00      	cmp	r3, #0
 8002f04:	db01      	blt.n	8002f0a <_svfiprintf_r+0x10a>
 8002f06:	930b      	str	r3, [sp, #44]	; 0x2c
 8002f08:	e004      	b.n	8002f14 <_svfiprintf_r+0x114>
 8002f0a:	425b      	negs	r3, r3
 8002f0c:	60e3      	str	r3, [r4, #12]
 8002f0e:	2302      	movs	r3, #2
 8002f10:	4313      	orrs	r3, r2
 8002f12:	6023      	str	r3, [r4, #0]
 8002f14:	782b      	ldrb	r3, [r5, #0]
 8002f16:	2b2e      	cmp	r3, #46	; 0x2e
 8002f18:	d10a      	bne.n	8002f30 <_svfiprintf_r+0x130>
 8002f1a:	786b      	ldrb	r3, [r5, #1]
 8002f1c:	2b2a      	cmp	r3, #42	; 0x2a
 8002f1e:	d135      	bne.n	8002f8c <_svfiprintf_r+0x18c>
 8002f20:	9b07      	ldr	r3, [sp, #28]
 8002f22:	3502      	adds	r5, #2
 8002f24:	1d1a      	adds	r2, r3, #4
 8002f26:	681b      	ldr	r3, [r3, #0]
 8002f28:	9207      	str	r2, [sp, #28]
 8002f2a:	2b00      	cmp	r3, #0
 8002f2c:	db2b      	blt.n	8002f86 <_svfiprintf_r+0x186>
 8002f2e:	9309      	str	r3, [sp, #36]	; 0x24
 8002f30:	4e2f      	ldr	r6, [pc, #188]	; (8002ff0 <_svfiprintf_r+0x1f0>)
 8002f32:	2203      	movs	r2, #3
 8002f34:	0030      	movs	r0, r6
 8002f36:	7829      	ldrb	r1, [r5, #0]
 8002f38:	f000 fa08 	bl	800334c <memchr>
 8002f3c:	2800      	cmp	r0, #0
 8002f3e:	d006      	beq.n	8002f4e <_svfiprintf_r+0x14e>
 8002f40:	2340      	movs	r3, #64	; 0x40
 8002f42:	1b80      	subs	r0, r0, r6
 8002f44:	4083      	lsls	r3, r0
 8002f46:	6822      	ldr	r2, [r4, #0]
 8002f48:	3501      	adds	r5, #1
 8002f4a:	4313      	orrs	r3, r2
 8002f4c:	6023      	str	r3, [r4, #0]
 8002f4e:	7829      	ldrb	r1, [r5, #0]
 8002f50:	2206      	movs	r2, #6
 8002f52:	4828      	ldr	r0, [pc, #160]	; (8002ff4 <_svfiprintf_r+0x1f4>)
 8002f54:	1c6e      	adds	r6, r5, #1
 8002f56:	7621      	strb	r1, [r4, #24]
 8002f58:	f000 f9f8 	bl	800334c <memchr>
 8002f5c:	2800      	cmp	r0, #0
 8002f5e:	d03c      	beq.n	8002fda <_svfiprintf_r+0x1da>
 8002f60:	4b25      	ldr	r3, [pc, #148]	; (8002ff8 <_svfiprintf_r+0x1f8>)
 8002f62:	2b00      	cmp	r3, #0
 8002f64:	d125      	bne.n	8002fb2 <_svfiprintf_r+0x1b2>
 8002f66:	2207      	movs	r2, #7
 8002f68:	9b07      	ldr	r3, [sp, #28]
 8002f6a:	3307      	adds	r3, #7
 8002f6c:	4393      	bics	r3, r2
 8002f6e:	3308      	adds	r3, #8
 8002f70:	9307      	str	r3, [sp, #28]
 8002f72:	6963      	ldr	r3, [r4, #20]
 8002f74:	9a04      	ldr	r2, [sp, #16]
 8002f76:	189b      	adds	r3, r3, r2
 8002f78:	6163      	str	r3, [r4, #20]
 8002f7a:	e764      	b.n	8002e46 <_svfiprintf_r+0x46>
 8002f7c:	4343      	muls	r3, r0
 8002f7e:	0035      	movs	r5, r6
 8002f80:	2101      	movs	r1, #1
 8002f82:	189b      	adds	r3, r3, r2
 8002f84:	e7a6      	b.n	8002ed4 <_svfiprintf_r+0xd4>
 8002f86:	2301      	movs	r3, #1
 8002f88:	425b      	negs	r3, r3
 8002f8a:	e7d0      	b.n	8002f2e <_svfiprintf_r+0x12e>
 8002f8c:	2300      	movs	r3, #0
 8002f8e:	200a      	movs	r0, #10
 8002f90:	001a      	movs	r2, r3
 8002f92:	3501      	adds	r5, #1
 8002f94:	6063      	str	r3, [r4, #4]
 8002f96:	7829      	ldrb	r1, [r5, #0]
 8002f98:	1c6e      	adds	r6, r5, #1
 8002f9a:	3930      	subs	r1, #48	; 0x30
 8002f9c:	2909      	cmp	r1, #9
 8002f9e:	d903      	bls.n	8002fa8 <_svfiprintf_r+0x1a8>
 8002fa0:	2b00      	cmp	r3, #0
 8002fa2:	d0c5      	beq.n	8002f30 <_svfiprintf_r+0x130>
 8002fa4:	9209      	str	r2, [sp, #36]	; 0x24
 8002fa6:	e7c3      	b.n	8002f30 <_svfiprintf_r+0x130>
 8002fa8:	4342      	muls	r2, r0
 8002faa:	0035      	movs	r5, r6
 8002fac:	2301      	movs	r3, #1
 8002fae:	1852      	adds	r2, r2, r1
 8002fb0:	e7f1      	b.n	8002f96 <_svfiprintf_r+0x196>
 8002fb2:	aa07      	add	r2, sp, #28
 8002fb4:	9200      	str	r2, [sp, #0]
 8002fb6:	0021      	movs	r1, r4
 8002fb8:	003a      	movs	r2, r7
 8002fba:	4b10      	ldr	r3, [pc, #64]	; (8002ffc <_svfiprintf_r+0x1fc>)
 8002fbc:	9803      	ldr	r0, [sp, #12]
 8002fbe:	e000      	b.n	8002fc2 <_svfiprintf_r+0x1c2>
 8002fc0:	bf00      	nop
 8002fc2:	9004      	str	r0, [sp, #16]
 8002fc4:	9b04      	ldr	r3, [sp, #16]
 8002fc6:	3301      	adds	r3, #1
 8002fc8:	d1d3      	bne.n	8002f72 <_svfiprintf_r+0x172>
 8002fca:	89bb      	ldrh	r3, [r7, #12]
 8002fcc:	980d      	ldr	r0, [sp, #52]	; 0x34
 8002fce:	065b      	lsls	r3, r3, #25
 8002fd0:	d400      	bmi.n	8002fd4 <_svfiprintf_r+0x1d4>
 8002fd2:	e72c      	b.n	8002e2e <_svfiprintf_r+0x2e>
 8002fd4:	2001      	movs	r0, #1
 8002fd6:	4240      	negs	r0, r0
 8002fd8:	e729      	b.n	8002e2e <_svfiprintf_r+0x2e>
 8002fda:	aa07      	add	r2, sp, #28
 8002fdc:	9200      	str	r2, [sp, #0]
 8002fde:	0021      	movs	r1, r4
 8002fe0:	003a      	movs	r2, r7
 8002fe2:	4b06      	ldr	r3, [pc, #24]	; (8002ffc <_svfiprintf_r+0x1fc>)
 8002fe4:	9803      	ldr	r0, [sp, #12]
 8002fe6:	f000 f87b 	bl	80030e0 <_printf_i>
 8002fea:	e7ea      	b.n	8002fc2 <_svfiprintf_r+0x1c2>
 8002fec:	080034d4 	.word	0x080034d4
 8002ff0:	080034da 	.word	0x080034da
 8002ff4:	080034de 	.word	0x080034de
 8002ff8:	00000000 	.word	0x00000000
 8002ffc:	08002d3d 	.word	0x08002d3d

08003000 <_printf_common>:
 8003000:	b5f7      	push	{r0, r1, r2, r4, r5, r6, r7, lr}
 8003002:	0016      	movs	r6, r2
 8003004:	9301      	str	r3, [sp, #4]
 8003006:	688a      	ldr	r2, [r1, #8]
 8003008:	690b      	ldr	r3, [r1, #16]
 800300a:	000c      	movs	r4, r1
 800300c:	9000      	str	r0, [sp, #0]
 800300e:	4293      	cmp	r3, r2
 8003010:	da00      	bge.n	8003014 <_printf_common+0x14>
 8003012:	0013      	movs	r3, r2
 8003014:	0022      	movs	r2, r4
 8003016:	6033      	str	r3, [r6, #0]
 8003018:	3243      	adds	r2, #67	; 0x43
 800301a:	7812      	ldrb	r2, [r2, #0]
 800301c:	2a00      	cmp	r2, #0
 800301e:	d001      	beq.n	8003024 <_printf_common+0x24>
 8003020:	3301      	adds	r3, #1
 8003022:	6033      	str	r3, [r6, #0]
 8003024:	6823      	ldr	r3, [r4, #0]
 8003026:	069b      	lsls	r3, r3, #26
 8003028:	d502      	bpl.n	8003030 <_printf_common+0x30>
 800302a:	6833      	ldr	r3, [r6, #0]
 800302c:	3302      	adds	r3, #2
 800302e:	6033      	str	r3, [r6, #0]
 8003030:	6822      	ldr	r2, [r4, #0]
 8003032:	2306      	movs	r3, #6
 8003034:	0015      	movs	r5, r2
 8003036:	401d      	ands	r5, r3
 8003038:	421a      	tst	r2, r3
 800303a:	d027      	beq.n	800308c <_printf_common+0x8c>
 800303c:	0023      	movs	r3, r4
 800303e:	3343      	adds	r3, #67	; 0x43
 8003040:	781b      	ldrb	r3, [r3, #0]
 8003042:	1e5a      	subs	r2, r3, #1
 8003044:	4193      	sbcs	r3, r2
 8003046:	6822      	ldr	r2, [r4, #0]
 8003048:	0692      	lsls	r2, r2, #26
 800304a:	d430      	bmi.n	80030ae <_printf_common+0xae>
 800304c:	0022      	movs	r2, r4
 800304e:	9901      	ldr	r1, [sp, #4]
 8003050:	9800      	ldr	r0, [sp, #0]
 8003052:	9d08      	ldr	r5, [sp, #32]
 8003054:	3243      	adds	r2, #67	; 0x43
 8003056:	47a8      	blx	r5
 8003058:	3001      	adds	r0, #1
 800305a:	d025      	beq.n	80030a8 <_printf_common+0xa8>
 800305c:	2206      	movs	r2, #6
 800305e:	6823      	ldr	r3, [r4, #0]
 8003060:	2500      	movs	r5, #0
 8003062:	4013      	ands	r3, r2
 8003064:	2b04      	cmp	r3, #4
 8003066:	d105      	bne.n	8003074 <_printf_common+0x74>
 8003068:	6833      	ldr	r3, [r6, #0]
 800306a:	68e5      	ldr	r5, [r4, #12]
 800306c:	1aed      	subs	r5, r5, r3
 800306e:	43eb      	mvns	r3, r5
 8003070:	17db      	asrs	r3, r3, #31
 8003072:	401d      	ands	r5, r3
 8003074:	68a3      	ldr	r3, [r4, #8]
 8003076:	6922      	ldr	r2, [r4, #16]
 8003078:	4293      	cmp	r3, r2
 800307a:	dd01      	ble.n	8003080 <_printf_common+0x80>
 800307c:	1a9b      	subs	r3, r3, r2
 800307e:	18ed      	adds	r5, r5, r3
 8003080:	2600      	movs	r6, #0
 8003082:	42b5      	cmp	r5, r6
 8003084:	d120      	bne.n	80030c8 <_printf_common+0xc8>
 8003086:	2000      	movs	r0, #0
 8003088:	e010      	b.n	80030ac <_printf_common+0xac>
 800308a:	3501      	adds	r5, #1
 800308c:	68e3      	ldr	r3, [r4, #12]
 800308e:	6832      	ldr	r2, [r6, #0]
 8003090:	1a9b      	subs	r3, r3, r2
 8003092:	42ab      	cmp	r3, r5
 8003094:	ddd2      	ble.n	800303c <_printf_common+0x3c>
 8003096:	0022      	movs	r2, r4
 8003098:	2301      	movs	r3, #1
 800309a:	9901      	ldr	r1, [sp, #4]
 800309c:	9800      	ldr	r0, [sp, #0]
 800309e:	9f08      	ldr	r7, [sp, #32]
 80030a0:	3219      	adds	r2, #25
 80030a2:	47b8      	blx	r7
 80030a4:	3001      	adds	r0, #1
 80030a6:	d1f0      	bne.n	800308a <_printf_common+0x8a>
 80030a8:	2001      	movs	r0, #1
 80030aa:	4240      	negs	r0, r0
 80030ac:	bdfe      	pop	{r1, r2, r3, r4, r5, r6, r7, pc}
 80030ae:	2030      	movs	r0, #48	; 0x30
 80030b0:	18e1      	adds	r1, r4, r3
 80030b2:	3143      	adds	r1, #67	; 0x43
 80030b4:	7008      	strb	r0, [r1, #0]
 80030b6:	0021      	movs	r1, r4
 80030b8:	1c5a      	adds	r2, r3, #1
 80030ba:	3145      	adds	r1, #69	; 0x45
 80030bc:	7809      	ldrb	r1, [r1, #0]
 80030be:	18a2      	adds	r2, r4, r2
 80030c0:	3243      	adds	r2, #67	; 0x43
 80030c2:	3302      	adds	r3, #2
 80030c4:	7011      	strb	r1, [r2, #0]
 80030c6:	e7c1      	b.n	800304c <_printf_common+0x4c>
 80030c8:	0022      	movs	r2, r4
 80030ca:	2301      	movs	r3, #1
 80030cc:	9901      	ldr	r1, [sp, #4]
 80030ce:	9800      	ldr	r0, [sp, #0]
 80030d0:	9f08      	ldr	r7, [sp, #32]
 80030d2:	321a      	adds	r2, #26
 80030d4:	47b8      	blx	r7
 80030d6:	3001      	adds	r0, #1
 80030d8:	d0e6      	beq.n	80030a8 <_printf_common+0xa8>
 80030da:	3601      	adds	r6, #1
 80030dc:	e7d1      	b.n	8003082 <_printf_common+0x82>
	...

080030e0 <_printf_i>:
 80030e0:	b5f0      	push	{r4, r5, r6, r7, lr}
 80030e2:	b08b      	sub	sp, #44	; 0x2c
 80030e4:	9206      	str	r2, [sp, #24]
 80030e6:	000a      	movs	r2, r1
 80030e8:	3243      	adds	r2, #67	; 0x43
 80030ea:	9307      	str	r3, [sp, #28]
 80030ec:	9005      	str	r0, [sp, #20]
 80030ee:	9204      	str	r2, [sp, #16]
 80030f0:	7e0a      	ldrb	r2, [r1, #24]
 80030f2:	000c      	movs	r4, r1
 80030f4:	9b10      	ldr	r3, [sp, #64]	; 0x40
 80030f6:	2a78      	cmp	r2, #120	; 0x78
 80030f8:	d809      	bhi.n	800310e <_printf_i+0x2e>
 80030fa:	2a62      	cmp	r2, #98	; 0x62
 80030fc:	d80b      	bhi.n	8003116 <_printf_i+0x36>
 80030fe:	2a00      	cmp	r2, #0
 8003100:	d100      	bne.n	8003104 <_printf_i+0x24>
 8003102:	e0be      	b.n	8003282 <_printf_i+0x1a2>
 8003104:	497c      	ldr	r1, [pc, #496]	; (80032f8 <_printf_i+0x218>)
 8003106:	9103      	str	r1, [sp, #12]
 8003108:	2a58      	cmp	r2, #88	; 0x58
 800310a:	d100      	bne.n	800310e <_printf_i+0x2e>
 800310c:	e093      	b.n	8003236 <_printf_i+0x156>
 800310e:	0026      	movs	r6, r4
 8003110:	3642      	adds	r6, #66	; 0x42
 8003112:	7032      	strb	r2, [r6, #0]
 8003114:	e022      	b.n	800315c <_printf_i+0x7c>
 8003116:	0010      	movs	r0, r2
 8003118:	3863      	subs	r0, #99	; 0x63
 800311a:	2815      	cmp	r0, #21
 800311c:	d8f7      	bhi.n	800310e <_printf_i+0x2e>
 800311e:	f7fd f80f 	bl	8000140 <__gnu_thumb1_case_shi>
 8003122:	0016      	.short	0x0016
 8003124:	fff6001f 	.word	0xfff6001f
 8003128:	fff6fff6 	.word	0xfff6fff6
 800312c:	001ffff6 	.word	0x001ffff6
 8003130:	fff6fff6 	.word	0xfff6fff6
 8003134:	fff6fff6 	.word	0xfff6fff6
 8003138:	003600a3 	.word	0x003600a3
 800313c:	fff60083 	.word	0xfff60083
 8003140:	00b4fff6 	.word	0x00b4fff6
 8003144:	0036fff6 	.word	0x0036fff6
 8003148:	fff6fff6 	.word	0xfff6fff6
 800314c:	0087      	.short	0x0087
 800314e:	0026      	movs	r6, r4
 8003150:	681a      	ldr	r2, [r3, #0]
 8003152:	3642      	adds	r6, #66	; 0x42
 8003154:	1d11      	adds	r1, r2, #4
 8003156:	6019      	str	r1, [r3, #0]
 8003158:	6813      	ldr	r3, [r2, #0]
 800315a:	7033      	strb	r3, [r6, #0]
 800315c:	2301      	movs	r3, #1
 800315e:	e0a2      	b.n	80032a6 <_printf_i+0x1c6>
 8003160:	6818      	ldr	r0, [r3, #0]
 8003162:	6809      	ldr	r1, [r1, #0]
 8003164:	1d02      	adds	r2, r0, #4
 8003166:	060d      	lsls	r5, r1, #24
 8003168:	d50b      	bpl.n	8003182 <_printf_i+0xa2>
 800316a:	6805      	ldr	r5, [r0, #0]
 800316c:	601a      	str	r2, [r3, #0]
 800316e:	2d00      	cmp	r5, #0
 8003170:	da03      	bge.n	800317a <_printf_i+0x9a>
 8003172:	232d      	movs	r3, #45	; 0x2d
 8003174:	9a04      	ldr	r2, [sp, #16]
 8003176:	426d      	negs	r5, r5
 8003178:	7013      	strb	r3, [r2, #0]
 800317a:	4b5f      	ldr	r3, [pc, #380]	; (80032f8 <_printf_i+0x218>)
 800317c:	270a      	movs	r7, #10
 800317e:	9303      	str	r3, [sp, #12]
 8003180:	e01b      	b.n	80031ba <_printf_i+0xda>
 8003182:	6805      	ldr	r5, [r0, #0]
 8003184:	601a      	str	r2, [r3, #0]
 8003186:	0649      	lsls	r1, r1, #25
 8003188:	d5f1      	bpl.n	800316e <_printf_i+0x8e>
 800318a:	b22d      	sxth	r5, r5
 800318c:	e7ef      	b.n	800316e <_printf_i+0x8e>
 800318e:	680d      	ldr	r5, [r1, #0]
 8003190:	6819      	ldr	r1, [r3, #0]
 8003192:	1d08      	adds	r0, r1, #4
 8003194:	6018      	str	r0, [r3, #0]
 8003196:	062e      	lsls	r6, r5, #24
 8003198:	d501      	bpl.n	800319e <_printf_i+0xbe>
 800319a:	680d      	ldr	r5, [r1, #0]
 800319c:	e003      	b.n	80031a6 <_printf_i+0xc6>
 800319e:	066d      	lsls	r5, r5, #25
 80031a0:	d5fb      	bpl.n	800319a <_printf_i+0xba>
 80031a2:	680d      	ldr	r5, [r1, #0]
 80031a4:	b2ad      	uxth	r5, r5
 80031a6:	4b54      	ldr	r3, [pc, #336]	; (80032f8 <_printf_i+0x218>)
 80031a8:	2708      	movs	r7, #8
 80031aa:	9303      	str	r3, [sp, #12]
 80031ac:	2a6f      	cmp	r2, #111	; 0x6f
 80031ae:	d000      	beq.n	80031b2 <_printf_i+0xd2>
 80031b0:	3702      	adds	r7, #2
 80031b2:	0023      	movs	r3, r4
 80031b4:	2200      	movs	r2, #0
 80031b6:	3343      	adds	r3, #67	; 0x43
 80031b8:	701a      	strb	r2, [r3, #0]
 80031ba:	6863      	ldr	r3, [r4, #4]
 80031bc:	60a3      	str	r3, [r4, #8]
 80031be:	2b00      	cmp	r3, #0
 80031c0:	db03      	blt.n	80031ca <_printf_i+0xea>
 80031c2:	2104      	movs	r1, #4
 80031c4:	6822      	ldr	r2, [r4, #0]
 80031c6:	438a      	bics	r2, r1
 80031c8:	6022      	str	r2, [r4, #0]
 80031ca:	2d00      	cmp	r5, #0
 80031cc:	d102      	bne.n	80031d4 <_printf_i+0xf4>
 80031ce:	9e04      	ldr	r6, [sp, #16]
 80031d0:	2b00      	cmp	r3, #0
 80031d2:	d00c      	beq.n	80031ee <_printf_i+0x10e>
 80031d4:	9e04      	ldr	r6, [sp, #16]
 80031d6:	0028      	movs	r0, r5
 80031d8:	0039      	movs	r1, r7
 80031da:	f7fd f841 	bl	8000260 <__aeabi_uidivmod>
 80031de:	9b03      	ldr	r3, [sp, #12]
 80031e0:	3e01      	subs	r6, #1
 80031e2:	5c5b      	ldrb	r3, [r3, r1]
 80031e4:	7033      	strb	r3, [r6, #0]
 80031e6:	002b      	movs	r3, r5
 80031e8:	0005      	movs	r5, r0
 80031ea:	429f      	cmp	r7, r3
 80031ec:	d9f3      	bls.n	80031d6 <_printf_i+0xf6>
 80031ee:	2f08      	cmp	r7, #8
 80031f0:	d109      	bne.n	8003206 <_printf_i+0x126>
 80031f2:	6823      	ldr	r3, [r4, #0]
 80031f4:	07db      	lsls	r3, r3, #31
 80031f6:	d506      	bpl.n	8003206 <_printf_i+0x126>
 80031f8:	6862      	ldr	r2, [r4, #4]
 80031fa:	6923      	ldr	r3, [r4, #16]
 80031fc:	429a      	cmp	r2, r3
 80031fe:	dc02      	bgt.n	8003206 <_printf_i+0x126>
 8003200:	2330      	movs	r3, #48	; 0x30
 8003202:	3e01      	subs	r6, #1
 8003204:	7033      	strb	r3, [r6, #0]
 8003206:	9b04      	ldr	r3, [sp, #16]
 8003208:	1b9b      	subs	r3, r3, r6
 800320a:	6123      	str	r3, [r4, #16]
 800320c:	9b07      	ldr	r3, [sp, #28]
 800320e:	0021      	movs	r1, r4
 8003210:	9300      	str	r3, [sp, #0]
 8003212:	9805      	ldr	r0, [sp, #20]
 8003214:	9b06      	ldr	r3, [sp, #24]
 8003216:	aa09      	add	r2, sp, #36	; 0x24
 8003218:	f7ff fef2 	bl	8003000 <_printf_common>
 800321c:	3001      	adds	r0, #1
 800321e:	d147      	bne.n	80032b0 <_printf_i+0x1d0>
 8003220:	2001      	movs	r0, #1
 8003222:	4240      	negs	r0, r0
 8003224:	b00b      	add	sp, #44	; 0x2c
 8003226:	bdf0      	pop	{r4, r5, r6, r7, pc}
 8003228:	2220      	movs	r2, #32
 800322a:	6809      	ldr	r1, [r1, #0]
 800322c:	430a      	orrs	r2, r1
 800322e:	6022      	str	r2, [r4, #0]
 8003230:	2278      	movs	r2, #120	; 0x78
 8003232:	4932      	ldr	r1, [pc, #200]	; (80032fc <_printf_i+0x21c>)
 8003234:	9103      	str	r1, [sp, #12]
 8003236:	0021      	movs	r1, r4
 8003238:	3145      	adds	r1, #69	; 0x45
 800323a:	700a      	strb	r2, [r1, #0]
 800323c:	6819      	ldr	r1, [r3, #0]
 800323e:	6822      	ldr	r2, [r4, #0]
 8003240:	c920      	ldmia	r1!, {r5}
 8003242:	0610      	lsls	r0, r2, #24
 8003244:	d402      	bmi.n	800324c <_printf_i+0x16c>
 8003246:	0650      	lsls	r0, r2, #25
 8003248:	d500      	bpl.n	800324c <_printf_i+0x16c>
 800324a:	b2ad      	uxth	r5, r5
 800324c:	6019      	str	r1, [r3, #0]
 800324e:	07d3      	lsls	r3, r2, #31
 8003250:	d502      	bpl.n	8003258 <_printf_i+0x178>
 8003252:	2320      	movs	r3, #32
 8003254:	4313      	orrs	r3, r2
 8003256:	6023      	str	r3, [r4, #0]
 8003258:	2710      	movs	r7, #16
 800325a:	2d00      	cmp	r5, #0
 800325c:	d1a9      	bne.n	80031b2 <_printf_i+0xd2>
 800325e:	2220      	movs	r2, #32
 8003260:	6823      	ldr	r3, [r4, #0]
 8003262:	4393      	bics	r3, r2
 8003264:	6023      	str	r3, [r4, #0]
 8003266:	e7a4      	b.n	80031b2 <_printf_i+0xd2>
 8003268:	681a      	ldr	r2, [r3, #0]
 800326a:	680d      	ldr	r5, [r1, #0]
 800326c:	1d10      	adds	r0, r2, #4
 800326e:	6949      	ldr	r1, [r1, #20]
 8003270:	6018      	str	r0, [r3, #0]
 8003272:	6813      	ldr	r3, [r2, #0]
 8003274:	062e      	lsls	r6, r5, #24
 8003276:	d501      	bpl.n	800327c <_printf_i+0x19c>
 8003278:	6019      	str	r1, [r3, #0]
 800327a:	e002      	b.n	8003282 <_printf_i+0x1a2>
 800327c:	066d      	lsls	r5, r5, #25
 800327e:	d5fb      	bpl.n	8003278 <_printf_i+0x198>
 8003280:	8019      	strh	r1, [r3, #0]
 8003282:	2300      	movs	r3, #0
 8003284:	9e04      	ldr	r6, [sp, #16]
 8003286:	6123      	str	r3, [r4, #16]
 8003288:	e7c0      	b.n	800320c <_printf_i+0x12c>
 800328a:	681a      	ldr	r2, [r3, #0]
 800328c:	1d11      	adds	r1, r2, #4
 800328e:	6019      	str	r1, [r3, #0]
 8003290:	6816      	ldr	r6, [r2, #0]
 8003292:	2100      	movs	r1, #0
 8003294:	0030      	movs	r0, r6
 8003296:	6862      	ldr	r2, [r4, #4]
 8003298:	f000 f858 	bl	800334c <memchr>
 800329c:	2800      	cmp	r0, #0
 800329e:	d001      	beq.n	80032a4 <_printf_i+0x1c4>
 80032a0:	1b80      	subs	r0, r0, r6
 80032a2:	6060      	str	r0, [r4, #4]
 80032a4:	6863      	ldr	r3, [r4, #4]
 80032a6:	6123      	str	r3, [r4, #16]
 80032a8:	2300      	movs	r3, #0
 80032aa:	9a04      	ldr	r2, [sp, #16]
 80032ac:	7013      	strb	r3, [r2, #0]
 80032ae:	e7ad      	b.n	800320c <_printf_i+0x12c>
 80032b0:	0032      	movs	r2, r6
 80032b2:	6923      	ldr	r3, [r4, #16]
 80032b4:	9906      	ldr	r1, [sp, #24]
 80032b6:	9805      	ldr	r0, [sp, #20]
 80032b8:	9d07      	ldr	r5, [sp, #28]
 80032ba:	47a8      	blx	r5
 80032bc:	3001      	adds	r0, #1
 80032be:	d0af      	beq.n	8003220 <_printf_i+0x140>
 80032c0:	6823      	ldr	r3, [r4, #0]
 80032c2:	079b      	lsls	r3, r3, #30
 80032c4:	d415      	bmi.n	80032f2 <_printf_i+0x212>
 80032c6:	9b09      	ldr	r3, [sp, #36]	; 0x24
 80032c8:	68e0      	ldr	r0, [r4, #12]
 80032ca:	4298      	cmp	r0, r3
 80032cc:	daaa      	bge.n	8003224 <_printf_i+0x144>
 80032ce:	0018      	movs	r0, r3
 80032d0:	e7a8      	b.n	8003224 <_printf_i+0x144>
 80032d2:	0022      	movs	r2, r4
 80032d4:	2301      	movs	r3, #1
 80032d6:	9906      	ldr	r1, [sp, #24]
 80032d8:	9805      	ldr	r0, [sp, #20]
 80032da:	9e07      	ldr	r6, [sp, #28]
 80032dc:	3219      	adds	r2, #25
 80032de:	47b0      	blx	r6
 80032e0:	3001      	adds	r0, #1
 80032e2:	d09d      	beq.n	8003220 <_printf_i+0x140>
 80032e4:	3501      	adds	r5, #1
 80032e6:	68e3      	ldr	r3, [r4, #12]
 80032e8:	9a09      	ldr	r2, [sp, #36]	; 0x24
 80032ea:	1a9b      	subs	r3, r3, r2
 80032ec:	42ab      	cmp	r3, r5
 80032ee:	dcf0      	bgt.n	80032d2 <_printf_i+0x1f2>
 80032f0:	e7e9      	b.n	80032c6 <_printf_i+0x1e6>
 80032f2:	2500      	movs	r5, #0
 80032f4:	e7f7      	b.n	80032e6 <_printf_i+0x206>
 80032f6:	46c0      	nop			; (mov r8, r8)
 80032f8:	080034e5 	.word	0x080034e5
 80032fc:	080034f6 	.word	0x080034f6

08003300 <memmove>:
 8003300:	b510      	push	{r4, lr}
 8003302:	4288      	cmp	r0, r1
 8003304:	d902      	bls.n	800330c <memmove+0xc>
 8003306:	188b      	adds	r3, r1, r2
 8003308:	4298      	cmp	r0, r3
 800330a:	d303      	bcc.n	8003314 <memmove+0x14>
 800330c:	2300      	movs	r3, #0
 800330e:	e007      	b.n	8003320 <memmove+0x20>
 8003310:	5c8b      	ldrb	r3, [r1, r2]
 8003312:	5483      	strb	r3, [r0, r2]
 8003314:	3a01      	subs	r2, #1
 8003316:	d2fb      	bcs.n	8003310 <memmove+0x10>
 8003318:	bd10      	pop	{r4, pc}
 800331a:	5ccc      	ldrb	r4, [r1, r3]
 800331c:	54c4      	strb	r4, [r0, r3]
 800331e:	3301      	adds	r3, #1
 8003320:	429a      	cmp	r2, r3
 8003322:	d1fa      	bne.n	800331a <memmove+0x1a>
 8003324:	e7f8      	b.n	8003318 <memmove+0x18>
	...

08003328 <_sbrk_r>:
 8003328:	2300      	movs	r3, #0
 800332a:	b570      	push	{r4, r5, r6, lr}
 800332c:	4d06      	ldr	r5, [pc, #24]	; (8003348 <_sbrk_r+0x20>)
 800332e:	0004      	movs	r4, r0
 8003330:	0008      	movs	r0, r1
 8003332:	602b      	str	r3, [r5, #0]
 8003334:	f7fd fc6a 	bl	8000c0c <_sbrk>
 8003338:	1c43      	adds	r3, r0, #1
 800333a:	d103      	bne.n	8003344 <_sbrk_r+0x1c>
 800333c:	682b      	ldr	r3, [r5, #0]
 800333e:	2b00      	cmp	r3, #0
 8003340:	d000      	beq.n	8003344 <_sbrk_r+0x1c>
 8003342:	6023      	str	r3, [r4, #0]
 8003344:	bd70      	pop	{r4, r5, r6, pc}
 8003346:	46c0      	nop			; (mov r8, r8)
 8003348:	20000388 	.word	0x20000388

0800334c <memchr>:
 800334c:	b2c9      	uxtb	r1, r1
 800334e:	1882      	adds	r2, r0, r2
 8003350:	4290      	cmp	r0, r2
 8003352:	d101      	bne.n	8003358 <memchr+0xc>
 8003354:	2000      	movs	r0, #0
 8003356:	4770      	bx	lr
 8003358:	7803      	ldrb	r3, [r0, #0]
 800335a:	428b      	cmp	r3, r1
 800335c:	d0fb      	beq.n	8003356 <memchr+0xa>
 800335e:	3001      	adds	r0, #1
 8003360:	e7f6      	b.n	8003350 <memchr+0x4>

08003362 <memcpy>:
 8003362:	2300      	movs	r3, #0
 8003364:	b510      	push	{r4, lr}
 8003366:	429a      	cmp	r2, r3
 8003368:	d100      	bne.n	800336c <memcpy+0xa>
 800336a:	bd10      	pop	{r4, pc}
 800336c:	5ccc      	ldrb	r4, [r1, r3]
 800336e:	54c4      	strb	r4, [r0, r3]
 8003370:	3301      	adds	r3, #1
 8003372:	e7f8      	b.n	8003366 <memcpy+0x4>

08003374 <_realloc_r>:
 8003374:	b5f7      	push	{r0, r1, r2, r4, r5, r6, r7, lr}
 8003376:	0007      	movs	r7, r0
 8003378:	000e      	movs	r6, r1
 800337a:	0014      	movs	r4, r2
 800337c:	2900      	cmp	r1, #0
 800337e:	d105      	bne.n	800338c <_realloc_r+0x18>
 8003380:	0011      	movs	r1, r2
 8003382:	f7ff fc49 	bl	8002c18 <_malloc_r>
 8003386:	0005      	movs	r5, r0
 8003388:	0028      	movs	r0, r5
 800338a:	bdfe      	pop	{r1, r2, r3, r4, r5, r6, r7, pc}
 800338c:	2a00      	cmp	r2, #0
 800338e:	d103      	bne.n	8003398 <_realloc_r+0x24>
 8003390:	f7ff fbd6 	bl	8002b40 <_free_r>
 8003394:	0025      	movs	r5, r4
 8003396:	e7f7      	b.n	8003388 <_realloc_r+0x14>
 8003398:	f000 f81b 	bl	80033d2 <_malloc_usable_size_r>
 800339c:	9001      	str	r0, [sp, #4]
 800339e:	4284      	cmp	r4, r0
 80033a0:	d803      	bhi.n	80033aa <_realloc_r+0x36>
 80033a2:	0035      	movs	r5, r6
 80033a4:	0843      	lsrs	r3, r0, #1
 80033a6:	42a3      	cmp	r3, r4
 80033a8:	d3ee      	bcc.n	8003388 <_realloc_r+0x14>
 80033aa:	0021      	movs	r1, r4
 80033ac:	0038      	movs	r0, r7
 80033ae:	f7ff fc33 	bl	8002c18 <_malloc_r>
 80033b2:	1e05      	subs	r5, r0, #0
 80033b4:	d0e8      	beq.n	8003388 <_realloc_r+0x14>
 80033b6:	9b01      	ldr	r3, [sp, #4]
 80033b8:	0022      	movs	r2, r4
 80033ba:	429c      	cmp	r4, r3
 80033bc:	d900      	bls.n	80033c0 <_realloc_r+0x4c>
 80033be:	001a      	movs	r2, r3
 80033c0:	0031      	movs	r1, r6
 80033c2:	0028      	movs	r0, r5
 80033c4:	f7ff ffcd 	bl	8003362 <memcpy>
 80033c8:	0031      	movs	r1, r6
 80033ca:	0038      	movs	r0, r7
 80033cc:	f7ff fbb8 	bl	8002b40 <_free_r>
 80033d0:	e7da      	b.n	8003388 <_realloc_r+0x14>

080033d2 <_malloc_usable_size_r>:
 80033d2:	1f0b      	subs	r3, r1, #4
 80033d4:	681b      	ldr	r3, [r3, #0]
 80033d6:	1f18      	subs	r0, r3, #4
 80033d8:	2b00      	cmp	r3, #0
 80033da:	da01      	bge.n	80033e0 <_malloc_usable_size_r+0xe>
 80033dc:	580b      	ldr	r3, [r1, r0]
 80033de:	18c0      	adds	r0, r0, r3
 80033e0:	4770      	bx	lr
	...

080033e4 <_init>:
 80033e4:	b5f8      	push	{r3, r4, r5, r6, r7, lr}
 80033e6:	46c0      	nop			; (mov r8, r8)
 80033e8:	bcf8      	pop	{r3, r4, r5, r6, r7}
 80033ea:	bc08      	pop	{r3}
 80033ec:	469e      	mov	lr, r3
 80033ee:	4770      	bx	lr

080033f0 <_fini>:
 80033f0:	b5f8      	push	{r3, r4, r5, r6, r7, lr}
 80033f2:	46c0      	nop			; (mov r8, r8)
 80033f4:	bcf8      	pop	{r3, r4, r5, r6, r7}
 80033f6:	bc08      	pop	{r3}
 80033f8:	469e      	mov	lr, r3
 80033fa:	4770      	bx	lr
